ccopy_reg
_reconstructor
p1
(cmicp.stats
StatsCollection
p2
c__builtin__
object
p3
NtRp4
(dp5
S'info'
p6
g1
(cmicp.info
Info
p7
g3
NtRp8
(dp9
S'_device'
p10
g1
(cmicp.info
InfoKNXSB
p11
g3
NtRp12
(dp13
S'_micinfoDict'
p14
(dp15
S'selfboot'
p16
(dp17
S'MCDRAM Size'
p18
S'16125 MB'
p19
sS'CPU Model Name'
p20
S'Intel(R) Xeon Phi(TM) CPU 7230 @ 1.30GHz'
p21
sS'CPU Family'
p22
S'6'
sS'OS Version'
p23
S'4.4.59-92.17-default\n'
p24
sS'CPU Stepping'
p25
S'1'
sS'Total No of Active Cores'
p26
S'64'
p27
sS'micperf Version'
p28
S'1.6.0'
p29
sS'CPU Model'
p30
S'87'
p31
sS'CPU Speed'
p32
S'1616.666'
p33
sS'Host OS'
p34
S'gnu/linux\n'
p35
sS'Vendor ID'
p36
S'GenuineIntel'
p37
sS'Host Physical Memory'
p38
S'112749 MB'
p39
sssS'_devIP'
p40
(dp41
sS'_devIdx'
p42
I-1
sS'_nodes_with_cpus'
p43
I1
sS'_is_mcdram_available'
p44
I01
sS'_commandDict'
p45
(dp46
S'dmidecode -t processor'
p47
S'# dmidecode 3.0\nScanning /dev/mem for entry point.\n\n/sys/firmware/dmi/tables/smbios_entry_point: Permission denied\n/dev/mem: Permission denied\n'
p48
sS'uname --processor'
p49
S'x86_64\n\n'
p50
sS'dmidecode -t baseboard'
p51
S'# dmidecode 3.0\nScanning /dev/mem for entry point.\n\n/sys/firmware/dmi/tables/smbios_entry_point: Permission denied\n/dev/mem: Permission denied\n'
p52
sS'env'
p53
S'BERTA_BUILD_COMMENT=XPPSL-CI-1.6.0.3662\nBERTA_OS=Linux-knl-sles12sp2-201707111508\nSHELL=/bin/bash\nBERTA_TMP_DIR=/home/berta/berta/tmp\nUSER=berta\nBERTA_MACHINE_NAME=Perf-KNL-D-B0-32tiles-8MCDRAM-03\nPATH=/opt/mpss_toolchains/composer/composer_xe_2018.0/compilers_and_libraries_2018.0.128/linux/bin/intel64:/opt/mpss_toolchains/composer/composer_xe_2018.0/compilers_and_libraries_2018.0.128/linux/mpi/intel64/bin:/usr/local/sbin:/usr/local/bin:/usr/sbin:/usr/bin:/sbin:/bin:/usr/share/mpss/test/micperf-pt:/usr/share/mpss/test/micperf-pt:/usr/share/mpss/test/micperf-pt\n_=/usr/bin/env\nPWD=/home/berta/berta/var/tasks/1439618\nSHLVL=4\nHOME=/home/berta\nBERTA_VAR_DIR=/home/berta/berta/var\nBERTA_MACHINES_GROUP_NAME=Perf-KNL-D-MIC-64-Cores-7230\nLOGNAME=berta\nPYTHONPATH=/home/berta/berta\nMY_IP_TO_BERTA=10.54.135.223\nLC_CTYPE=en_US.UTF-8\nDISPLAY=:1\nBERTA_PRODUCT=mic_tool\nBERTA_BOOTFILE=agent\nMKLROOT=/opt/mpss_toolchains/composer/composer_xe_2018.0/compilers_and_libraries_2018.0.128/linux/mkl\nMANPATH=/opt/mpss_toolchains/composer/composer_xe_2018.0/man/common:/opt/mpss_toolchains/composer/composer_xe_2018.0/compilers_and_libraries_2018.0.128/linux/mpi/man:/opt/mpss_toolchains/composer/composer_xe_2018.0/documentation_2018/en/debugger//gdb-ia/man/:/opt/mpss_toolchains/composer/composer_xe_2018.0/documentation_2018/en/debugger//gdb-igfx/man/:/usr/local/man:/usr/share/man:\nINTEL_LICENSE_FILE=/opt/mpss_toolchains/composer/composer_xe_2018.0/compilers_and_libraries_2018.0.128/linux/licenses:/opt/intel/licenses:/home/berta/intel/licenses\nIPPROOT=/opt/mpss_toolchains/composer/composer_xe_2018.0/compilers_and_libraries_2018.0.128/linux/ipp\nGDBSERVER_MIC=/opt/mpss_toolchains/composer/composer_xe_2018.0/debugger_2018/gdb/targets/intel64/x200/bin/gdbserver\nLIBRARY_PATH=/opt/mpss_toolchains/composer/composer_xe_2018.0/compilers_and_libraries_2018.0.128/linux/ipp/lib/intel64:/opt/mpss_toolchains/composer/composer_xe_2018.0/compilers_and_libraries_2018.0.128/linux/compiler/lib/intel64_lin:/opt/mpss_toolchains/composer/composer_xe_2018.0/compilers_and_libraries_2018.0.128/linux/mkl/lib/intel64_lin:/opt/mpss_toolchains/composer/composer_xe_2018.0/compilers_and_libraries_2018.0.128/linux/tbb/lib/intel64/gcc4.7:/opt/mpss_toolchains/composer/composer_xe_2018.0/compilers_and_libraries_2018.0.128/linux/tbb/lib/intel64/gcc4.7:/opt/mpss_toolchains/composer/composer_xe_2018.0/compilers_and_libraries_2018.0.128/linux/daal/lib/intel64_lin:/opt/mpss_toolchains/composer/composer_xe_2018.0/compilers_and_libraries_2018.0.128/linux/daal/../tbb/lib/intel64_lin/gcc4.4\nLD_LIBRARY_PATH=/opt/mpss_toolchains/composer/composer_xe_2018.0/compilers_and_libraries_2018.0.128/linux/compiler/lib/intel64:/opt/mpss_toolchains/composer/composer_xe_2018.0/compilers_and_libraries_2018.0.128/linux/compiler/lib/intel64_lin:/opt/mpss_toolchains/composer/composer_xe_2018.0/compilers_and_libraries_2018.0.128/linux/mpi/intel64/lib:/opt/mpss_toolchains/composer/composer_xe_2018.0/compilers_and_libraries_2018.0.128/linux/mpi/mic/lib:/opt/mpss_toolchains/composer/composer_xe_2018.0/compilers_and_libraries_2018.0.128/linux/ipp/lib/intel64:/opt/mpss_toolchains/composer/composer_xe_2018.0/compilers_and_libraries_2018.0.128/linux/compiler/lib/intel64_lin:/opt/mpss_toolchains/composer/composer_xe_2018.0/compilers_and_libraries_2018.0.128/linux/mkl/lib/intel64_lin:/opt/mpss_toolchains/composer/composer_xe_2018.0/compilers_and_libraries_2018.0.128/linux/tbb/lib/intel64/gcc4.7:/opt/mpss_toolchains/composer/composer_xe_2018.0/compilers_and_libraries_2018.0.128/linux/tbb/lib/intel64/gcc4.7:/opt/mpss_toolchains/composer/composer_xe_2018.0/debugger_2018/iga/lib:/opt/mpss_toolchains/composer/composer_xe_2018.0/debugger_2018/libipt/intel64/lib:/opt/mpss_toolchains/composer/composer_xe_2018.0/compilers_and_libraries_2018.0.128/linux/daal/lib/intel64_lin:/opt/mpss_toolchains/composer/composer_xe_2018.0/compilers_and_libraries_2018.0.128/linux/daal/../tbb/lib/intel64_lin/gcc4.4\nPSTLROOT=/opt/mpss_toolchains/composer/composer_xe_2018.0/compilers_and_libraries_2018.0.128/linux/pstl\nCPATH=/opt/mpss_toolchains/composer/composer_xe_2018.0/compilers_and_libraries_2018.0.128/linux/ipp/include:/opt/mpss_toolchains/composer/composer_xe_2018.0/compilers_and_libraries_2018.0.128/linux/mkl/include:/opt/mpss_toolchains/composer/composer_xe_2018.0/compilers_and_libraries_2018.0.128/linux/pstl/include:/opt/mpss_toolchains/composer/composer_xe_2018.0/compilers_and_libraries_2018.0.128/linux/tbb/include:/opt/mpss_toolchains/composer/composer_xe_2018.0/compilers_and_libraries_2018.0.128/linux/tbb/include:/opt/mpss_toolchains/composer/composer_xe_2018.0/compilers_and_libraries_2018.0.128/linux/daal/include\nNLSPATH=/opt/mpss_toolchains/composer/composer_xe_2018.0/compilers_and_libraries_2018.0.128/linux/compiler/lib/intel64/locale/%l_%t/%N:/opt/mpss_toolchains/composer/composer_xe_2018.0/compilers_and_libraries_2018.0.128/linux/mkl/lib/intel64_lin/locale/%l_%t/%N:/opt/mpss_toolchains/composer/composer_xe_2018.0/debugger_2018/gdb/intel64/share/locale/%l_%t/%N\nTBBROOT=/opt/mpss_toolchains/composer/composer_xe_2018.0/compilers_and_libraries_2018.0.128/linux/tbb\nGDB_CROSS=/opt/mpss_toolchains/composer/composer_xe_2018.0/debugger_2018/gdb/intel64/bin/gdb-ia\nDAALROOT=/opt/mpss_toolchains/composer/composer_xe_2018.0/compilers_and_libraries_2018.0.128/linux/daal\nMPM_LAUNCHER=/opt/mpss_toolchains/composer/composer_xe_2018.0/debugger_2018/mpm/mic/bin/start_mpm.sh\nINTEL_PYTHONHOME=/opt/mpss_toolchains/composer/composer_xe_2018.0/debugger_2018/python/intel64/\nCLASSPATH=/opt/mpss_toolchains/composer/composer_xe_2018.0/compilers_and_libraries_2018.0.128/linux/mpi/intel64/lib/mpi.jar:/opt/mpss_toolchains/composer/composer_xe_2018.0/compilers_and_libraries_2018.0.128/linux/daal/lib/daal.jar\nINFOPATH=/opt/mpss_toolchains/composer/composer_xe_2018.0/documentation_2018/en/debugger//gdb-ia/info/:/opt/mpss_toolchains/composer/composer_xe_2018.0/documentation_2018/en/debugger//gdb-igfx/info/\nI_MPI_ROOT=/opt/mpss_toolchains/composer/composer_xe_2018.0/compilers_and_libraries_2018.0.128/linux/mpi\n\n'
p54
sS'uname --machine'
p55
S'x86_64\n\n'
p56
sS'uname --kernel-version'
p57
S'#1 SMP Thu Apr 6 14:16:09 UTC 2017 (7bc489d)\n\n'
p58
sS'uname --kernel-release'
p59
S'4.4.59-92.17-default\n\n'
p60
sS'dmidecode -t chassis'
p61
S'# dmidecode 3.0\nScanning /dev/mem for entry point.\n\n/sys/firmware/dmi/tables/smbios_entry_point: Permission denied\n/dev/mem: Permission denied\n'
p62
sS'uname --kernel-name'
p63
S'Linux\n\n'
p64
sS'dmidecode -t bios'
p65
S'# dmidecode 3.0\nScanning /dev/mem for entry point.\n\n/sys/firmware/dmi/tables/smbios_entry_point: Permission denied\n/dev/mem: Permission denied\n'
p66
sS'lspci -mmvvkD'
p67
S'Slot:\t0000:00:00.0\nClass:\tHost bridge\nVendor:\tIntel Corporation\nDevice:\tDevice 7802\nSVendor:\tIntel Corporation\nSDevice:\tDevice 35cb\nRev:\t10\n\nSlot:\t0000:00:05.0\nClass:\tSystem peripheral\nVendor:\tIntel Corporation\nDevice:\tDevice 7810\nSVendor:\tIntel Corporation\nSDevice:\tDevice 35cb\nRev:\t10\n\nSlot:\t0000:00:05.2\nClass:\tSystem peripheral\nVendor:\tIntel Corporation\nDevice:\tDevice 7812\nSVendor:\tIntel Corporation\nSDevice:\tDevice 35cb\nRev:\t10\n\nSlot:\t0000:00:05.4\nClass:\tPIC\nVendor:\tIntel Corporation\nDevice:\tDevice 7813\nSVendor:\tIntel Corporation\nSDevice:\tDevice 35cb\nRev:\t10\nProgIf:\t20\n\nSlot:\t0000:00:05.6\nClass:\tPerformance counters\nVendor:\tIntel Corporation\nDevice:\tDevice 7814\nSVendor:\tIntel Corporation\nSDevice:\tDevice 35cb\nRev:\t10\nDriver:\tknl_uncore\n\nSlot:\t0000:00:08.0\nClass:\tSystem peripheral\nVendor:\tIntel Corporation\nDevice:\tDevice 781a\nSVendor:\tIntel Corporation\nSDevice:\tDevice 35cb\nRev:\t10\n\nSlot:\t0000:00:08.1\nClass:\tPerformance counters\nVendor:\tIntel Corporation\nDevice:\tDevice 781b\nSVendor:\tIntel Corporation\nSDevice:\tDevice 35cb\nRev:\t10\n\nSlot:\t0000:00:08.2\nClass:\tSystem peripheral\nVendor:\tIntel Corporation\nDevice:\tDevice 781c\nSVendor:\tIntel Corporation\nSDevice:\tDevice 35cb\nRev:\t10\n\nSlot:\t0000:00:11.0\nClass:\tUnassigned class [ff00]\nVendor:\tIntel Corporation\nDevice:\tC610/X99 series chipset SPSR\nSVendor:\tIntel Corporation\nSDevice:\tDevice 0000\nRev:\t05\n\nSlot:\t0000:00:11.4\nClass:\tSATA controller\nVendor:\tIntel Corporation\nDevice:\tC610/X99 series chipset sSATA Controller [AHCI mode]\nSVendor:\tIntel Corporation\nSDevice:\tDevice 35cb\nRev:\t05\nProgIf:\t01\nDriver:\tahci\nModule:\tahci\n\nSlot:\t0000:00:14.0\nClass:\tUSB controller\nVendor:\tIntel Corporation\nDevice:\tC610/X99 series chipset USB xHCI Host Controller\nSVendor:\tIntel Corporation\nSDevice:\tDevice 35cb\nRev:\t05\nProgIf:\t30\nDriver:\txhci_hcd\nModule:\txhci_pci\n\nSlot:\t0000:00:16.0\nClass:\tCommunication controller\nVendor:\tIntel Corporation\nDevice:\tC610/X99 series chipset MEI Controller #1\nSVendor:\tIntel Corporation\nSDevice:\tDevice 35cb\nRev:\t05\nModule:\tmei_me\n\nSlot:\t0000:00:16.1\nClass:\tCommunication controller\nVendor:\tIntel Corporation\nDevice:\tC610/X99 series chipset MEI Controller #2\nSVendor:\tIntel Corporation\nSDevice:\tDevice 35cb\nRev:\t05\n\nSlot:\t0000:00:1a.0\nClass:\tUSB controller\nVendor:\tIntel Corporation\nDevice:\tC610/X99 series chipset USB Enhanced Host Controller #2\nSVendor:\tIntel Corporation\nSDevice:\tDevice 35cb\nRev:\t05\nProgIf:\t20\nDriver:\tehci-pci\nModule:\tehci_pci\n\nSlot:\t0000:00:1c.0\nClass:\tPCI bridge\nVendor:\tIntel Corporation\nDevice:\tC610/X99 series chipset PCI Express Root Port #1\nRev:\td5\nDriver:\tpcieport\nModule:\tshpchp\n\nSlot:\t0000:00:1c.4\nClass:\tPCI bridge\nVendor:\tIntel Corporation\nDevice:\tC610/X99 series chipset PCI Express Root Port #5\nRev:\td5\nDriver:\tpcieport\nModule:\tshpchp\n\nSlot:\t0000:00:1c.6\nClass:\tPCI bridge\nVendor:\tIntel Corporation\nDevice:\tC610/X99 series chipset PCI Express Root Port #7\nRev:\td5\nDriver:\tpcieport\nModule:\tshpchp\n\nSlot:\t0000:00:1c.7\nClass:\tPCI bridge\nVendor:\tIntel Corporation\nDevice:\tC610/X99 series chipset PCI Express Root Port #8\nRev:\td5\nDriver:\tpcieport\nModule:\tshpchp\n\nSlot:\t0000:00:1d.0\nClass:\tUSB controller\nVendor:\tIntel Corporation\nDevice:\tC610/X99 series chipset USB Enhanced Host Controller #1\nSVendor:\tIntel Corporation\nSDevice:\tDevice 35cb\nRev:\t05\nProgIf:\t20\nDriver:\tehci-pci\nModule:\tehci_pci\n\nSlot:\t0000:00:1f.0\nClass:\tISA bridge\nVendor:\tIntel Corporation\nDevice:\tC610/X99 series chipset LPC Controller\nSVendor:\tIntel Corporation\nSDevice:\tDevice 35cb\nRev:\t05\nDriver:\tlpc_ich\nModule:\tlpc_ich\n\nSlot:\t0000:00:1f.2\nClass:\tSATA controller\nVendor:\tIntel Corporation\nDevice:\tC610/X99 series chipset 6-Port SATA Controller [AHCI mode]\nSVendor:\tIntel Corporation\nSDevice:\tDevice 35cb\nRev:\t05\nProgIf:\t01\nDriver:\tahci\nModule:\tahci\n\nSlot:\t0000:00:1f.3\nClass:\tSMBus\nVendor:\tIntel Corporation\nDevice:\tC610/X99 series chipset SMBus Controller\nSVendor:\tIntel Corporation\nSDevice:\tDevice 35cb\nRev:\t05\nDriver:\ti801_smbus\nModule:\ti2c_i801\n\nSlot:\t0000:00:1f.6\nClass:\tSignal processing controller\nVendor:\tIntel Corporation\nDevice:\tC610/X99 series chipset Thermal Subsystem\nSVendor:\tIntel Corporation\nSDevice:\tDevice 35cb\nRev:\t05\n\nSlot:\t0000:02:00.0\nClass:\tVGA compatible controller\nVendor:\tMatrox Electronics Systems Ltd.\nDevice:\tMGA G200e [Pilot] ServerEngines (SEP1)\nSVendor:\tIntel Corporation\nSDevice:\tDevice 0103\nRev:\t05\nDriver:\tmgag200\nModule:\tmgag200\n\nSlot:\t0000:03:00.0\nClass:\tEthernet controller\nVendor:\tIntel Corporation\nDevice:\tI210 Gigabit Network Connection\nSVendor:\tIntel Corporation\nSDevice:\tDevice 35cb\nRev:\t03\nDriver:\tigb\nModule:\tigb\n\nSlot:\t0000:04:00.0\nClass:\tEthernet controller\nVendor:\tIntel Corporation\nDevice:\tI210 Gigabit Network Connection\nSVendor:\tIntel Corporation\nSDevice:\tDevice 35cb\nRev:\t03\nDriver:\tigb\nModule:\tigb\n\nSlot:\t0000:fe:08.0\nClass:\tSystem peripheral\nVendor:\tIntel Corporation\nDevice:\tDevice 782f\nSVendor:\tIntel Corporation\nSDevice:\tDevice 782f\nRev:\t10\n\nSlot:\t0000:fe:08.1\nClass:\tSystem peripheral\nVendor:\tIntel Corporation\nDevice:\tDevice 782f\nSVendor:\tIntel Corporation\nSDevice:\tDevice 782f\nRev:\t10\n\nSlot:\t0000:fe:08.2\nClass:\tSystem peripheral\nVendor:\tIntel Corporation\nDevice:\tDevice 782f\nSVendor:\tIntel Corporation\nSDevice:\tDevice 782f\nRev:\t10\n\nSlot:\t0000:fe:08.3\nClass:\tSystem peripheral\nVendor:\tIntel Corporation\nDevice:\tDevice 782f\nSVendor:\tIntel Corporation\nSDevice:\tDevice 782f\nRev:\t10\n\nSlot:\t0000:fe:08.4\nClass:\tSystem peripheral\nVendor:\tIntel Corporation\nDevice:\tDevice 782f\nSVendor:\tIntel Corporation\nSDevice:\tDevice 782f\nRev:\t10\n\nSlot:\t0000:fe:08.5\nClass:\tSystem peripheral\nVendor:\tIntel Corporation\nDevice:\tDevice 782f\nSVendor:\tIntel Corporation\nSDevice:\tDevice 782f\nRev:\t10\n\nSlot:\t0000:fe:08.6\nClass:\tSystem peripheral\nVendor:\tIntel Corporation\nDevice:\tDevice 782f\nSVendor:\tIntel Corporation\nSDevice:\tDevice 782f\nRev:\t10\n\nSlot:\t0000:fe:08.7\nClass:\tSystem peripheral\nVendor:\tIntel Corporation\nDevice:\tDevice 782f\nSVendor:\tIntel Corporation\nSDevice:\tDevice 782f\nRev:\t10\n\nSlot:\t0000:fe:09.0\nClass:\tSystem peripheral\nVendor:\tIntel Corporation\nDevice:\tDevice 782f\nSVendor:\tIntel Corporation\nSDevice:\tDevice 782f\nRev:\t10\n\nSlot:\t0000:fe:09.1\nClass:\tSystem peripheral\nVendor:\tIntel Corporation\nDevice:\tDevice 782f\nSVendor:\tIntel Corporation\nSDevice:\tDevice 782f\nRev:\t10\n\nSlot:\t0000:fe:09.2\nClass:\tSystem peripheral\nVendor:\tIntel Corporation\nDevice:\tDevice 782f\nSVendor:\tIntel Corporation\nSDevice:\tDevice 782f\nRev:\t10\n\nSlot:\t0000:fe:09.3\nClass:\tSystem peripheral\nVendor:\tIntel Corporation\nDevice:\tDevice 782f\nSVendor:\tIntel Corporation\nSDevice:\tDevice 782f\nRev:\t10\n\nSlot:\t0000:fe:09.4\nClass:\tSystem peripheral\nVendor:\tIntel Corporation\nDevice:\tDevice 782f\nSVendor:\tIntel Corporation\nSDevice:\tDevice 782f\nRev:\t10\n\nSlot:\t0000:fe:09.5\nClass:\tSystem peripheral\nVendor:\tIntel Corporation\nDevice:\tDevice 782f\nSVendor:\tIntel Corporation\nSDevice:\tDevice 782f\nRev:\t10\n\nSlot:\t0000:fe:09.6\nClass:\tSystem peripheral\nVendor:\tIntel Corporation\nDevice:\tDevice 782f\nSVendor:\tIntel Corporation\nSDevice:\tDevice 782f\nRev:\t10\n\nSlot:\t0000:fe:09.7\nClass:\tSystem peripheral\nVendor:\tIntel Corporation\nDevice:\tDevice 782f\nSVendor:\tIntel Corporation\nSDevice:\tDevice 782f\nRev:\t10\n\nSlot:\t0000:fe:0a.0\nClass:\tSystem peripheral\nVendor:\tIntel Corporation\nDevice:\tDevice 782f\nSVendor:\tIntel Corporation\nSDevice:\tDevice 782f\nRev:\t10\n\nSlot:\t0000:fe:0a.1\nClass:\tSystem peripheral\nVendor:\tIntel Corporation\nDevice:\tDevice 782f\nSVendor:\tIntel Corporation\nSDevice:\tDevice 782f\nRev:\t10\n\nSlot:\t0000:fe:0a.2\nClass:\tSystem peripheral\nVendor:\tIntel Corporation\nDevice:\tDevice 782f\nSVendor:\tIntel Corporation\nSDevice:\tDevice 782f\nRev:\t10\n\nSlot:\t0000:fe:0a.3\nClass:\tSystem peripheral\nVendor:\tIntel Corporation\nDevice:\tDevice 782f\nSVendor:\tIntel Corporation\nSDevice:\tDevice 782f\nRev:\t10\n\nSlot:\t0000:fe:0a.4\nClass:\tSystem peripheral\nVendor:\tIntel Corporation\nDevice:\tDevice 782f\nSVendor:\tIntel Corporation\nSDevice:\tDevice 782f\nRev:\t10\n\nSlot:\t0000:fe:0a.5\nClass:\tSystem peripheral\nVendor:\tIntel Corporation\nDevice:\tDevice 782f\nSVendor:\tIntel Corporation\nSDevice:\tDevice 782f\nRev:\t10\n\nSlot:\t0000:fe:0a.6\nClass:\tSystem peripheral\nVendor:\tIntel Corporation\nDevice:\tDevice 782f\nSVendor:\tIntel Corporation\nSDevice:\tDevice 782f\nRev:\t10\n\nSlot:\t0000:fe:0a.7\nClass:\tSystem peripheral\nVendor:\tIntel Corporation\nDevice:\tDevice 782f\nSVendor:\tIntel Corporation\nSDevice:\tDevice 782f\nRev:\t10\n\nSlot:\t0000:fe:0b.0\nClass:\tSystem peripheral\nVendor:\tIntel Corporation\nDevice:\tDevice 782f\nSVendor:\tIntel Corporation\nSDevice:\tDevice 782f\nRev:\t10\n\nSlot:\t0000:fe:0b.1\nClass:\tSystem peripheral\nVendor:\tIntel Corporation\nDevice:\tDevice 782f\nSVendor:\tIntel Corporation\nSDevice:\tDevice 782f\nRev:\t10\n\nSlot:\t0000:fe:0b.2\nClass:\tSystem peripheral\nVendor:\tIntel Corporation\nDevice:\tDevice 782f\nSVendor:\tIntel Corporation\nSDevice:\tDevice 782f\nRev:\t10\n\nSlot:\t0000:fe:0b.3\nClass:\tSystem peripheral\nVendor:\tIntel Corporation\nDevice:\tDevice 782f\nSVendor:\tIntel Corporation\nSDevice:\tDevice 782f\nRev:\t10\n\nSlot:\t0000:fe:0b.4\nClass:\tSystem peripheral\nVendor:\tIntel Corporation\nDevice:\tDevice 782f\nSVendor:\tIntel Corporation\nSDevice:\tDevice 782f\nRev:\t10\n\nSlot:\t0000:fe:0b.5\nClass:\tSystem peripheral\nVendor:\tIntel Corporation\nDevice:\tDevice 782f\nSVendor:\tIntel Corporation\nSDevice:\tDevice 782f\nRev:\t10\n\nSlot:\t0000:fe:0b.6\nClass:\tSystem peripheral\nVendor:\tIntel Corporation\nDevice:\tDevice 782f\nSVendor:\tIntel Corporation\nSDevice:\tDevice 782f\nRev:\t10\n\nSlot:\t0000:fe:0b.7\nClass:\tSystem peripheral\nVendor:\tIntel Corporation\nDevice:\tDevice 782f\nSVendor:\tIntel Corporation\nSDevice:\tDevice 782f\nRev:\t10\n\nSlot:\t0000:fe:0c.0\nClass:\tSystem peripheral\nVendor:\tIntel Corporation\nDevice:\tDevice 782f\nSVendor:\tIntel Corporation\nSDevice:\tDevice 782f\nRev:\t10\n\nSlot:\t0000:fe:0c.1\nClass:\tSystem peripheral\nVendor:\tIntel Corporation\nDevice:\tDevice 782f\nSVendor:\tIntel Corporation\nSDevice:\tDevice 782f\nRev:\t10\n\nSlot:\t0000:fe:0c.2\nClass:\tSystem peripheral\nVendor:\tIntel Corporation\nDevice:\tDevice 782f\nSVendor:\tIntel Corporation\nSDevice:\tDevice 782f\nRev:\t10\n\nSlot:\t0000:fe:0c.3\nClass:\tSystem peripheral\nVendor:\tIntel Corporation\nDevice:\tDevice 782f\nSVendor:\tIntel Corporation\nSDevice:\tDevice 782f\nRev:\t10\n\nSlot:\t0000:fe:0c.4\nClass:\tSystem peripheral\nVendor:\tIntel Corporation\nDevice:\tDevice 782f\nSVendor:\tIntel Corporation\nSDevice:\tDevice 782f\nRev:\t10\n\nSlot:\t0000:fe:0c.5\nClass:\tSystem peripheral\nVendor:\tIntel Corporation\nDevice:\tDevice 782f\nSVendor:\tIntel Corporation\nSDevice:\tDevice 782f\nRev:\t10\n\nSlot:\t0000:fe:0e.0\nClass:\tSystem peripheral\nVendor:\tIntel Corporation\nDevice:\tDevice 782c\nSVendor:\tIntel Corporation\nSDevice:\tDevice 782c\nRev:\t10\n\nSlot:\t0000:fe:0e.1\nClass:\tSystem peripheral\nVendor:\tIntel Corporation\nDevice:\tDevice 782c\nSVendor:\tIntel Corporation\nSDevice:\tDevice 782c\nRev:\t10\n\nSlot:\t0000:fe:0e.2\nClass:\tSystem peripheral\nVendor:\tIntel Corporation\nDevice:\tDevice 782c\nSVendor:\tIntel Corporation\nSDevice:\tDevice 782c\nRev:\t10\n\nSlot:\t0000:fe:0e.3\nClass:\tSystem peripheral\nVendor:\tIntel Corporation\nDevice:\tDevice 782c\nSVendor:\tIntel Corporation\nSDevice:\tDevice 782c\nRev:\t10\n\nSlot:\t0000:fe:0e.4\nClass:\tSystem peripheral\nVendor:\tIntel Corporation\nDevice:\tDevice 782c\nSVendor:\tIntel Corporation\nSDevice:\tDevice 782c\nRev:\t10\n\nSlot:\t0000:fe:0e.5\nClass:\tSystem peripheral\nVendor:\tIntel Corporation\nDevice:\tDevice 782c\nSVendor:\tIntel Corporation\nSDevice:\tDevice 782c\nRev:\t10\n\nSlot:\t0000:fe:0e.6\nClass:\tSystem peripheral\nVendor:\tIntel Corporation\nDevice:\tDevice 782c\nSVendor:\tIntel Corporation\nSDevice:\tDevice 782c\nRev:\t10\n\nSlot:\t0000:fe:0e.7\nClass:\tSystem peripheral\nVendor:\tIntel Corporation\nDevice:\tDevice 782c\nSVendor:\tIntel Corporation\nSDevice:\tDevice 782c\nRev:\t10\n\nSlot:\t0000:fe:0f.0\nClass:\tSystem peripheral\nVendor:\tIntel Corporation\nDevice:\tDevice 782c\nSVendor:\tIntel Corporation\nSDevice:\tDevice 782c\nRev:\t10\n\nSlot:\t0000:fe:0f.1\nClass:\tSystem peripheral\nVendor:\tIntel Corporation\nDevice:\tDevice 782c\nSVendor:\tIntel Corporation\nSDevice:\tDevice 782c\nRev:\t10\n\nSlot:\t0000:fe:0f.2\nClass:\tSystem peripheral\nVendor:\tIntel Corporation\nDevice:\tDevice 782c\nSVendor:\tIntel Corporation\nSDevice:\tDevice 782c\nRev:\t10\n\nSlot:\t0000:fe:0f.3\nClass:\tSystem peripheral\nVendor:\tIntel Corporation\nDevice:\tDevice 782c\nSVendor:\tIntel Corporation\nSDevice:\tDevice 782c\nRev:\t10\n\nSlot:\t0000:fe:0f.4\nClass:\tSystem peripheral\nVendor:\tIntel Corporation\nDevice:\tDevice 782c\nSVendor:\tIntel Corporation\nSDevice:\tDevice 782c\nRev:\t10\n\nSlot:\t0000:fe:0f.5\nClass:\tSystem peripheral\nVendor:\tIntel Corporation\nDevice:\tDevice 782c\nSVendor:\tIntel Corporation\nSDevice:\tDevice 782c\nRev:\t10\n\nSlot:\t0000:fe:0f.6\nClass:\tSystem peripheral\nVendor:\tIntel Corporation\nDevice:\tDevice 782c\nSVendor:\tIntel Corporation\nSDevice:\tDevice 782c\nRev:\t10\n\nSlot:\t0000:fe:0f.7\nClass:\tSystem peripheral\nVendor:\tIntel Corporation\nDevice:\tDevice 782c\nSVendor:\tIntel Corporation\nSDevice:\tDevice 782c\nRev:\t10\n\nSlot:\t0000:fe:10.0\nClass:\tSystem peripheral\nVendor:\tIntel Corporation\nDevice:\tDevice 782c\nSVendor:\tIntel Corporation\nSDevice:\tDevice 782c\nRev:\t10\n\nSlot:\t0000:fe:10.1\nClass:\tSystem peripheral\nVendor:\tIntel Corporation\nDevice:\tDevice 782c\nSVendor:\tIntel Corporation\nSDevice:\tDevice 782c\nRev:\t10\n\nSlot:\t0000:fe:10.2\nClass:\tSystem peripheral\nVendor:\tIntel Corporation\nDevice:\tDevice 782c\nSVendor:\tIntel Corporation\nSDevice:\tDevice 782c\nRev:\t10\n\nSlot:\t0000:fe:10.3\nClass:\tSystem peripheral\nVendor:\tIntel Corporation\nDevice:\tDevice 782c\nSVendor:\tIntel Corporation\nSDevice:\tDevice 782c\nRev:\t10\n\nSlot:\t0000:fe:10.4\nClass:\tSystem peripheral\nVendor:\tIntel Corporation\nDevice:\tDevice 782c\nSVendor:\tIntel Corporation\nSDevice:\tDevice 782c\nRev:\t10\n\nSlot:\t0000:fe:10.5\nClass:\tSystem peripheral\nVendor:\tIntel Corporation\nDevice:\tDevice 782c\nSVendor:\tIntel Corporation\nSDevice:\tDevice 782c\nRev:\t10\n\nSlot:\t0000:fe:10.6\nClass:\tSystem peripheral\nVendor:\tIntel Corporation\nDevice:\tDevice 782c\nSVendor:\tIntel Corporation\nSDevice:\tDevice 782c\nRev:\t10\n\nSlot:\t0000:fe:10.7\nClass:\tSystem peripheral\nVendor:\tIntel Corporation\nDevice:\tDevice 782c\nSVendor:\tIntel Corporation\nSDevice:\tDevice 782c\nRev:\t10\n\nSlot:\t0000:fe:11.0\nClass:\tSystem peripheral\nVendor:\tIntel Corporation\nDevice:\tDevice 782c\nSVendor:\tIntel Corporation\nSDevice:\tDevice 782c\nRev:\t10\n\nSlot:\t0000:fe:11.1\nClass:\tSystem peripheral\nVendor:\tIntel Corporation\nDevice:\tDevice 782c\nSVendor:\tIntel Corporation\nSDevice:\tDevice 782c\nRev:\t10\n\nSlot:\t0000:fe:11.2\nClass:\tSystem peripheral\nVendor:\tIntel Corporation\nDevice:\tDevice 782c\nSVendor:\tIntel Corporation\nSDevice:\tDevice 782c\nRev:\t10\n\nSlot:\t0000:fe:11.3\nClass:\tSystem peripheral\nVendor:\tIntel Corporation\nDevice:\tDevice 782c\nSVendor:\tIntel Corporation\nSDevice:\tDevice 782c\nRev:\t10\n\nSlot:\t0000:fe:11.4\nClass:\tSystem peripheral\nVendor:\tIntel Corporation\nDevice:\tDevice 782c\nSVendor:\tIntel Corporation\nSDevice:\tDevice 782c\nRev:\t10\n\nSlot:\t0000:fe:11.5\nClass:\tSystem peripheral\nVendor:\tIntel Corporation\nDevice:\tDevice 782c\nSVendor:\tIntel Corporation\nSDevice:\tDevice 782c\nRev:\t10\n\nSlot:\t0000:fe:11.6\nClass:\tSystem peripheral\nVendor:\tIntel Corporation\nDevice:\tDevice 782c\nSVendor:\tIntel Corporation\nSDevice:\tDevice 782c\nRev:\t10\n\nSlot:\t0000:fe:11.7\nClass:\tSystem peripheral\nVendor:\tIntel Corporation\nDevice:\tDevice 782c\nSVendor:\tIntel Corporation\nSDevice:\tDevice 782c\nRev:\t10\n\nSlot:\t0000:fe:12.0\nClass:\tSystem peripheral\nVendor:\tIntel Corporation\nDevice:\tDevice 782c\nSVendor:\tIntel Corporation\nSDevice:\tDevice 782c\nRev:\t10\n\nSlot:\t0000:fe:12.1\nClass:\tSystem peripheral\nVendor:\tIntel Corporation\nDevice:\tDevice 782c\nSVendor:\tIntel Corporation\nSDevice:\tDevice 782c\nRev:\t10\n\nSlot:\t0000:fe:12.2\nClass:\tSystem peripheral\nVendor:\tIntel Corporation\nDevice:\tDevice 782c\nSVendor:\tIntel Corporation\nSDevice:\tDevice 782c\nRev:\t10\n\nSlot:\t0000:fe:12.3\nClass:\tSystem peripheral\nVendor:\tIntel Corporation\nDevice:\tDevice 782c\nSVendor:\tIntel Corporation\nSDevice:\tDevice 782c\nRev:\t10\n\nSlot:\t0000:fe:12.4\nClass:\tSystem peripheral\nVendor:\tIntel Corporation\nDevice:\tDevice 782c\nSVendor:\tIntel Corporation\nSDevice:\tDevice 782c\nRev:\t10\n\nSlot:\t0000:fe:12.5\nClass:\tSystem peripheral\nVendor:\tIntel Corporation\nDevice:\tDevice 782c\nSVendor:\tIntel Corporation\nSDevice:\tDevice 782c\nRev:\t10\n\nSlot:\t0000:fe:14.0\nClass:\tSystem peripheral\nVendor:\tIntel Corporation\nDevice:\tDevice 781f\nSVendor:\tIntel Corporation\nSDevice:\tDevice 781f\nRev:\t10\n\nSlot:\t0000:fe:14.1\nClass:\tSystem peripheral\nVendor:\tIntel Corporation\nDevice:\tDevice 781f\nSVendor:\tIntel Corporation\nSDevice:\tDevice 781f\nRev:\t10\n\nSlot:\t0000:fe:14.2\nClass:\tSystem peripheral\nVendor:\tIntel Corporation\nDevice:\tDevice 781f\nSVendor:\tIntel Corporation\nSDevice:\tDevice 781f\nRev:\t10\n\nSlot:\t0000:fe:14.3\nClass:\tSystem peripheral\nVendor:\tIntel Corporation\nDevice:\tDevice 781f\nSVendor:\tIntel Corporation\nSDevice:\tDevice 781f\nRev:\t10\n\nSlot:\t0000:fe:14.4\nClass:\tSystem peripheral\nVendor:\tIntel Corporation\nDevice:\tDevice 781f\nSVendor:\tIntel Corporation\nSDevice:\tDevice 781f\nRev:\t10\n\nSlot:\t0000:fe:14.5\nClass:\tSystem peripheral\nVendor:\tIntel Corporation\nDevice:\tDevice 781f\nSVendor:\tIntel Corporation\nSDevice:\tDevice 781f\nRev:\t10\n\nSlot:\t0000:fe:14.6\nClass:\tSystem peripheral\nVendor:\tIntel Corporation\nDevice:\tDevice 781f\nSVendor:\tIntel Corporation\nSDevice:\tDevice 781f\nRev:\t10\n\nSlot:\t0000:fe:14.7\nClass:\tSystem peripheral\nVendor:\tIntel Corporation\nDevice:\tDevice 781f\nSVendor:\tIntel Corporation\nSDevice:\tDevice 781f\nRev:\t10\n\nSlot:\t0000:fe:15.0\nClass:\tSystem peripheral\nVendor:\tIntel Corporation\nDevice:\tDevice 781f\nSVendor:\tIntel Corporation\nSDevice:\tDevice 781f\nRev:\t10\n\nSlot:\t0000:fe:15.1\nClass:\tSystem peripheral\nVendor:\tIntel Corporation\nDevice:\tDevice 781f\nSVendor:\tIntel Corporation\nSDevice:\tDevice 781f\nRev:\t10\n\nSlot:\t0000:fe:15.2\nClass:\tSystem peripheral\nVendor:\tIntel Corporation\nDevice:\tDevice 781f\nSVendor:\tIntel Corporation\nSDevice:\tDevice 781f\nRev:\t10\n\nSlot:\t0000:fe:15.3\nClass:\tSystem peripheral\nVendor:\tIntel Corporation\nDevice:\tDevice 781f\nSVendor:\tIntel Corporation\nSDevice:\tDevice 781f\nRev:\t10\n\nSlot:\t0000:fe:15.4\nClass:\tSystem peripheral\nVendor:\tIntel Corporation\nDevice:\tDevice 781f\nSVendor:\tIntel Corporation\nSDevice:\tDevice 781f\nRev:\t10\n\nSlot:\t0000:fe:15.5\nClass:\tSystem peripheral\nVendor:\tIntel Corporation\nDevice:\tDevice 781f\nSVendor:\tIntel Corporation\nSDevice:\tDevice 781f\nRev:\t10\n\nSlot:\t0000:fe:15.6\nClass:\tSystem peripheral\nVendor:\tIntel Corporation\nDevice:\tDevice 781f\nSVendor:\tIntel Corporation\nSDevice:\tDevice 781f\nRev:\t10\n\nSlot:\t0000:fe:15.7\nClass:\tSystem peripheral\nVendor:\tIntel Corporation\nDevice:\tDevice 781f\nSVendor:\tIntel Corporation\nSDevice:\tDevice 781f\nRev:\t10\n\nSlot:\t0000:fe:16.0\nClass:\tSystem peripheral\nVendor:\tIntel Corporation\nDevice:\tDevice 781f\nSVendor:\tIntel Corporation\nSDevice:\tDevice 781f\nRev:\t10\n\nSlot:\t0000:fe:16.1\nClass:\tSystem peripheral\nVendor:\tIntel Corporation\nDevice:\tDevice 781f\nSVendor:\tIntel Corporation\nSDevice:\tDevice 781f\nRev:\t10\n\nSlot:\t0000:fe:16.2\nClass:\tSystem peripheral\nVendor:\tIntel Corporation\nDevice:\tDevice 781f\nSVendor:\tIntel Corporation\nSDevice:\tDevice 781f\nRev:\t10\n\nSlot:\t0000:fe:16.3\nClass:\tSystem peripheral\nVendor:\tIntel Corporation\nDevice:\tDevice 781f\nSVendor:\tIntel Corporation\nSDevice:\tDevice 781f\nRev:\t10\n\nSlot:\t0000:fe:16.4\nClass:\tSystem peripheral\nVendor:\tIntel Corporation\nDevice:\tDevice 781f\nSVendor:\tIntel Corporation\nSDevice:\tDevice 781f\nRev:\t10\n\nSlot:\t0000:fe:16.5\nClass:\tSystem peripheral\nVendor:\tIntel Corporation\nDevice:\tDevice 781f\nSVendor:\tIntel Corporation\nSDevice:\tDevice 781f\nRev:\t10\n\nSlot:\t0000:fe:16.6\nClass:\tSystem peripheral\nVendor:\tIntel Corporation\nDevice:\tDevice 781f\nSVendor:\tIntel Corporation\nSDevice:\tDevice 781f\nRev:\t10\n\nSlot:\t0000:fe:16.7\nClass:\tSystem peripheral\nVendor:\tIntel Corporation\nDevice:\tDevice 781f\nSVendor:\tIntel Corporation\nSDevice:\tDevice 781f\nRev:\t10\n\nSlot:\t0000:fe:17.0\nClass:\tSystem peripheral\nVendor:\tIntel Corporation\nDevice:\tDevice 781f\nSVendor:\tIntel Corporation\nSDevice:\tDevice 781f\nRev:\t10\n\nSlot:\t0000:fe:17.1\nClass:\tSystem peripheral\nVendor:\tIntel Corporation\nDevice:\tDevice 781f\nSVendor:\tIntel Corporation\nSDevice:\tDevice 781f\nRev:\t10\n\nSlot:\t0000:fe:17.2\nClass:\tSystem peripheral\nVendor:\tIntel Corporation\nDevice:\tDevice 781f\nSVendor:\tIntel Corporation\nSDevice:\tDevice 781f\nRev:\t10\n\nSlot:\t0000:fe:17.3\nClass:\tSystem peripheral\nVendor:\tIntel Corporation\nDevice:\tDevice 781f\nSVendor:\tIntel Corporation\nSDevice:\tDevice 781f\nRev:\t10\n\nSlot:\t0000:fe:17.4\nClass:\tSystem peripheral\nVendor:\tIntel Corporation\nDevice:\tDevice 781f\nSVendor:\tIntel Corporation\nSDevice:\tDevice 781f\nRev:\t10\n\nSlot:\t0000:fe:17.5\nClass:\tSystem peripheral\nVendor:\tIntel Corporation\nDevice:\tDevice 781f\nSVendor:\tIntel Corporation\nSDevice:\tDevice 781f\nRev:\t10\n\nSlot:\t0000:fe:17.6\nClass:\tSystem peripheral\nVendor:\tIntel Corporation\nDevice:\tDevice 781f\nSVendor:\tIntel Corporation\nSDevice:\tDevice 781f\nRev:\t10\n\nSlot:\t0000:fe:17.7\nClass:\tSystem peripheral\nVendor:\tIntel Corporation\nDevice:\tDevice 781f\nSVendor:\tIntel Corporation\nSDevice:\tDevice 781f\nRev:\t10\n\nSlot:\t0000:fe:18.0\nClass:\tSystem peripheral\nVendor:\tIntel Corporation\nDevice:\tDevice 781f\nSVendor:\tIntel Corporation\nSDevice:\tDevice 781f\nRev:\t10\n\nSlot:\t0000:fe:18.1\nClass:\tSystem peripheral\nVendor:\tIntel Corporation\nDevice:\tDevice 781f\nSVendor:\tIntel Corporation\nSDevice:\tDevice 781f\nRev:\t10\n\nSlot:\t0000:fe:18.2\nClass:\tSystem peripheral\nVendor:\tIntel Corporation\nDevice:\tDevice 781f\nSVendor:\tIntel Corporation\nSDevice:\tDevice 781f\nRev:\t10\n\nSlot:\t0000:fe:18.3\nClass:\tSystem peripheral\nVendor:\tIntel Corporation\nDevice:\tDevice 781f\nSVendor:\tIntel Corporation\nSDevice:\tDevice 781f\nRev:\t10\n\nSlot:\t0000:fe:18.4\nClass:\tSystem peripheral\nVendor:\tIntel Corporation\nDevice:\tDevice 781f\nSVendor:\tIntel Corporation\nSDevice:\tDevice 781f\nRev:\t10\n\nSlot:\t0000:fe:18.5\nClass:\tSystem peripheral\nVendor:\tIntel Corporation\nDevice:\tDevice 781f\nSVendor:\tIntel Corporation\nSDevice:\tDevice 781f\nRev:\t10\n\nSlot:\t0000:fe:1d.0\nClass:\tSystem peripheral\nVendor:\tIntel Corporation\nDevice:\tDevice 782a\nSVendor:\tIntel Corporation\nSDevice:\tDevice 782a\nRev:\t10\nDriver:\tsbridge_edac\nModule:\tsb_edac\n\nSlot:\t0000:fe:1d.1\nClass:\tSystem peripheral\nVendor:\tIntel Corporation\nDevice:\tDevice 782b\nSVendor:\tIntel Corporation\nSDevice:\tDevice 782b\nRev:\t10\n\nSlot:\t0000:fe:1d.2\nClass:\tSystem peripheral\nVendor:\tIntel Corporation\nDevice:\tDevice 782e\nSVendor:\tIntel Corporation\nSDevice:\tDevice 782f\nRev:\t10\n\nSlot:\t0000:fe:1d.3\nClass:\tSystem peripheral\nVendor:\tIntel Corporation\nDevice:\tDevice 782d\nSVendor:\tIntel Corporation\nSDevice:\tDevice 782d\nRev:\t10\n\nSlot:\t0000:fe:1e.0\nClass:\tSystem peripheral\nVendor:\tIntel Corporation\nDevice:\tDevice 7820\nSVendor:\tIntel Corporation\nSDevice:\tDevice 7820\nRev:\t10\n\nSlot:\t0000:fe:1e.1\nClass:\tSystem peripheral\nVendor:\tIntel Corporation\nDevice:\tDevice 7821\nSVendor:\tIntel Corporation\nSDevice:\tDevice 7821\nRev:\t10\n\nSlot:\t0000:fe:1e.2\nClass:\tSystem peripheral\nVendor:\tIntel Corporation\nDevice:\tDevice 7822\nSVendor:\tIntel Corporation\nSDevice:\tDevice 7822\nRev:\t10\n\nSlot:\t0000:fe:1e.3\nClass:\tSystem peripheral\nVendor:\tIntel Corporation\nDevice:\tDevice 7823\nSVendor:\tIntel Corporation\nSDevice:\tDevice 7823\nRev:\t10\n\nSlot:\t0000:fe:1e.4\nClass:\tSystem peripheral\nVendor:\tIntel Corporation\nDevice:\tDevice 7824\nSVendor:\tIntel Corporation\nSDevice:\tDevice 7824\nRev:\t10\n\nSlot:\t0000:fe:1e.5\nClass:\tSystem peripheral\nVendor:\tIntel Corporation\nDevice:\tDevice 7825\nSVendor:\tIntel Corporation\nSDevice:\tDevice 7825\nRev:\t10\n\nSlot:\t0000:fe:1e.6\nClass:\tSystem peripheral\nVendor:\tIntel Corporation\nDevice:\tDevice 7826\nSVendor:\tIntel Corporation\nSDevice:\tDevice 7826\nRev:\t10\n\nSlot:\t0000:ff:08.0\nClass:\tSystem peripheral\nVendor:\tIntel Corporation\nDevice:\tDevice 7840\nSVendor:\tIntel Corporation\nSDevice:\tDevice 35cb\nRev:\t10\n\nSlot:\t0000:ff:08.1\nClass:\tSystem peripheral\nVendor:\tIntel Corporation\nDevice:\tDevice 7842\nSVendor:\tIntel Corporation\nSDevice:\tDevice 35cb\nRev:\t10\n\nSlot:\t0000:ff:08.2\nClass:\tSystem peripheral\nVendor:\tIntel Corporation\nDevice:\tDevice 7843\nSVendor:\tIntel Corporation\nSDevice:\tDevice 35cb\nRev:\t10\nDriver:\tknl_uncore\n\nSlot:\t0000:ff:08.3\nClass:\tSystem peripheral\nVendor:\tIntel Corporation\nDevice:\tDevice 7843\nSVendor:\tIntel Corporation\nSDevice:\tDevice 35cb\nRev:\t10\nDriver:\tknl_uncore\n\nSlot:\t0000:ff:08.4\nClass:\tSystem peripheral\nVendor:\tIntel Corporation\nDevice:\tDevice 7843\nSVendor:\tIntel Corporation\nSDevice:\tDevice 35cb\nRev:\t10\nDriver:\tknl_uncore\n\nSlot:\t0000:ff:09.0\nClass:\tSystem peripheral\nVendor:\tIntel Corporation\nDevice:\tDevice 7840\nSVendor:\tIntel Corporation\nSDevice:\tDevice 35cb\nRev:\t10\n\nSlot:\t0000:ff:09.1\nClass:\tSystem peripheral\nVendor:\tIntel Corporation\nDevice:\tDevice 7842\nSVendor:\tIntel Corporation\nSDevice:\tDevice 35cb\nRev:\t10\n\nSlot:\t0000:ff:09.2\nClass:\tSystem peripheral\nVendor:\tIntel Corporation\nDevice:\tDevice 7843\nSVendor:\tIntel Corporation\nSDevice:\tDevice 35cb\nRev:\t10\nDriver:\tknl_uncore\n\nSlot:\t0000:ff:09.3\nClass:\tSystem peripheral\nVendor:\tIntel Corporation\nDevice:\tDevice 7843\nSVendor:\tIntel Corporation\nSDevice:\tDevice 35cb\nRev:\t10\nDriver:\tknl_uncore\n\nSlot:\t0000:ff:09.4\nClass:\tSystem peripheral\nVendor:\tIntel Corporation\nDevice:\tDevice 7843\nSVendor:\tIntel Corporation\nSDevice:\tDevice 35cb\nRev:\t10\nDriver:\tknl_uncore\n\nSlot:\t0000:ff:0a.0\nClass:\tSystem peripheral\nVendor:\tIntel Corporation\nDevice:\tDevice 7841\nSVendor:\tIntel Corporation\nSDevice:\tDevice 35cb\nRev:\t10\nDriver:\tknl_uncore\n\nSlot:\t0000:ff:0a.1\nClass:\tSystem peripheral\nVendor:\tIntel Corporation\nDevice:\tDevice 7844\nSVendor:\tIntel Corporation\nSDevice:\tDevice 35cb\nRev:\t10\n\nSlot:\t0000:ff:0a.2\nClass:\tSystem peripheral\nVendor:\tIntel Corporation\nDevice:\tDevice 781f\nSVendor:\tIntel Corporation\nSDevice:\tDevice 35cb\nRev:\t10\n\nSlot:\t0000:ff:0b.0\nClass:\tSystem peripheral\nVendor:\tIntel Corporation\nDevice:\tDevice 7841\nSVendor:\tIntel Corporation\nSDevice:\tDevice 35cb\nRev:\t10\nDriver:\tknl_uncore\n\nSlot:\t0000:ff:0b.1\nClass:\tSystem peripheral\nVendor:\tIntel Corporation\nDevice:\tDevice 7844\nSVendor:\tIntel Corporation\nSDevice:\tDevice 35cb\nRev:\t10\n\nSlot:\t0000:ff:0b.2\nClass:\tSystem peripheral\nVendor:\tIntel Corporation\nDevice:\tDevice 781f\nSVendor:\tIntel Corporation\nSDevice:\tDevice 35cb\nRev:\t10\n\nSlot:\t0000:ff:0c.0\nClass:\tSystem peripheral\nVendor:\tIntel Corporation\nDevice:\tDevice 7816\nSVendor:\tIntel Corporation\nSDevice:\tDevice 35cb\nRev:\t10\n\nSlot:\t0000:ff:0c.1\nClass:\tPerformance counters\nVendor:\tIntel Corporation\nDevice:\tDevice 7817\nSVendor:\tIntel Corporation\nSDevice:\tDevice 35cb\nRev:\t10\nDriver:\tknl_uncore\n\nSlot:\t0000:ff:0c.2\nClass:\tSystem peripheral\nVendor:\tIntel Corporation\nDevice:\tDevice 781f\nSVendor:\tIntel Corporation\nSDevice:\tDevice 35cb\nRev:\t10\n\nSlot:\t0000:ff:0f.0\nClass:\tSystem peripheral\nVendor:\tIntel Corporation\nDevice:\tDevice 7833\nSVendor:\tIntel Corporation\nSDevice:\tDevice 35cb\nRev:\t10\nDriver:\tknl_uncore\n\nSlot:\t0000:ff:0f.1\nClass:\tSystem peripheral\nVendor:\tIntel Corporation\nDevice:\tDevice 7839\nSVendor:\tIntel Corporation\nSDevice:\tDevice 35cb\nRev:\t10\n\nSlot:\t0000:ff:0f.2\nClass:\tSystem peripheral\nVendor:\tIntel Corporation\nDevice:\tDevice 781f\nSVendor:\tIntel Corporation\nSDevice:\tDevice 35cb\nRev:\t10\n\nSlot:\t0000:ff:10.0\nClass:\tSystem peripheral\nVendor:\tIntel Corporation\nDevice:\tDevice 7833\nSVendor:\tIntel Corporation\nSDevice:\tDevice 35cb\nRev:\t10\nDriver:\tknl_uncore\n\nSlot:\t0000:ff:10.1\nClass:\tSystem peripheral\nVendor:\tIntel Corporation\nDevice:\tDevice 7839\nSVendor:\tIntel Corporation\nSDevice:\tDevice 35cb\nRev:\t10\n\nSlot:\t0000:ff:10.2\nClass:\tSystem peripheral\nVendor:\tIntel Corporation\nDevice:\tDevice 781f\nSVendor:\tIntel Corporation\nSDevice:\tDevice 35cb\nRev:\t10\n\nSlot:\t0000:ff:10.5\nClass:\tSystem peripheral\nVendor:\tIntel Corporation\nDevice:\tDevice 7848\nRev:\t10\n\nSlot:\t0000:ff:10.6\nClass:\tSystem peripheral\nVendor:\tIntel Corporation\nDevice:\tDevice 7848\nRev:\t10\n\nSlot:\t0000:ff:10.7\nClass:\tSystem peripheral\nVendor:\tIntel Corporation\nDevice:\tDevice 7848\nRev:\t10\n\nSlot:\t0000:ff:11.0\nClass:\tSystem peripheral\nVendor:\tIntel Corporation\nDevice:\tDevice 7833\nSVendor:\tIntel Corporation\nSDevice:\tDevice 35cb\nRev:\t10\nDriver:\tknl_uncore\n\nSlot:\t0000:ff:11.1\nClass:\tSystem peripheral\nVendor:\tIntel Corporation\nDevice:\tDevice 7839\nSVendor:\tIntel Corporation\nSDevice:\tDevice 35cb\nRev:\t10\n\nSlot:\t0000:ff:11.2\nClass:\tSystem peripheral\nVendor:\tIntel Corporation\nDevice:\tDevice 781f\nSVendor:\tIntel Corporation\nSDevice:\tDevice 35cb\nRev:\t10\n\nSlot:\t0000:ff:11.5\nClass:\tSystem peripheral\nVendor:\tIntel Corporation\nDevice:\tDevice 7849\nRev:\t10\n\nSlot:\t0000:ff:11.6\nClass:\tSystem peripheral\nVendor:\tIntel Corporation\nDevice:\tDevice 7849\nRev:\t10\n\nSlot:\t0000:ff:11.7\nClass:\tSystem peripheral\nVendor:\tIntel Corporation\nDevice:\tDevice 7849\nRev:\t10\n\nSlot:\t0000:ff:12.0\nClass:\tSystem peripheral\nVendor:\tIntel Corporation\nDevice:\tDevice 7833\nSVendor:\tIntel Corporation\nSDevice:\tDevice 35cb\nRev:\t10\nDriver:\tknl_uncore\n\nSlot:\t0000:ff:12.1\nClass:\tSystem peripheral\nVendor:\tIntel Corporation\nDevice:\tDevice 7839\nSVendor:\tIntel Corporation\nSDevice:\tDevice 35cb\nRev:\t10\n\nSlot:\t0000:ff:12.2\nClass:\tSystem peripheral\nVendor:\tIntel Corporation\nDevice:\tDevice 781f\nSVendor:\tIntel Corporation\nSDevice:\tDevice 35cb\nRev:\t10\n\nSlot:\t0000:ff:12.5\nClass:\tSystem peripheral\nVendor:\tIntel Corporation\nDevice:\tDevice 7848\nRev:\t10\n\nSlot:\t0000:ff:12.6\nClass:\tSystem peripheral\nVendor:\tIntel Corporation\nDevice:\tDevice 7848\nRev:\t10\n\nSlot:\t0000:ff:12.7\nClass:\tSystem peripheral\nVendor:\tIntel Corporation\nDevice:\tDevice 7848\nRev:\t10\n\nSlot:\t0000:ff:13.0\nClass:\tSystem peripheral\nVendor:\tIntel Corporation\nDevice:\tDevice 7833\nSVendor:\tIntel Corporation\nSDevice:\tDevice 35cb\nRev:\t10\nDriver:\tknl_uncore\n\nSlot:\t0000:ff:13.1\nClass:\tSystem peripheral\nVendor:\tIntel Corporation\nDevice:\tDevice 7839\nSVendor:\tIntel Corporation\nSDevice:\tDevice 35cb\nRev:\t10\n\nSlot:\t0000:ff:13.2\nClass:\tSystem peripheral\nVendor:\tIntel Corporation\nDevice:\tDevice 781f\nSVendor:\tIntel Corporation\nSDevice:\tDevice 35cb\nRev:\t10\n\nSlot:\t0000:ff:13.5\nClass:\tSystem peripheral\nVendor:\tIntel Corporation\nDevice:\tDevice 7849\nRev:\t10\n\nSlot:\t0000:ff:13.6\nClass:\tSystem peripheral\nVendor:\tIntel Corporation\nDevice:\tDevice 7849\nRev:\t10\n\nSlot:\t0000:ff:13.7\nClass:\tSystem peripheral\nVendor:\tIntel Corporation\nDevice:\tDevice 7849\nRev:\t10\n\nSlot:\t0000:ff:14.0\nClass:\tSystem peripheral\nVendor:\tIntel Corporation\nDevice:\tDevice 7833\nSVendor:\tIntel Corporation\nSDevice:\tDevice 35cb\nRev:\t10\nDriver:\tknl_uncore\n\nSlot:\t0000:ff:14.1\nClass:\tSystem peripheral\nVendor:\tIntel Corporation\nDevice:\tDevice 7839\nSVendor:\tIntel Corporation\nSDevice:\tDevice 35cb\nRev:\t10\n\nSlot:\t0000:ff:14.2\nClass:\tSystem peripheral\nVendor:\tIntel Corporation\nDevice:\tDevice 781f\nSVendor:\tIntel Corporation\nSDevice:\tDevice 35cb\nRev:\t10\n\nSlot:\t0000:ff:14.6\nClass:\tSystem peripheral\nVendor:\tIntel Corporation\nDevice:\tDevice 7845\nRev:\t10\n\nSlot:\t0000:ff:14.7\nClass:\tSystem peripheral\nVendor:\tIntel Corporation\nDevice:\tDevice 7846\nRev:\t10\n\nSlot:\t0000:ff:15.0\nClass:\tSystem peripheral\nVendor:\tIntel Corporation\nDevice:\tDevice 7833\nSVendor:\tIntel Corporation\nSDevice:\tDevice 35cb\nRev:\t10\nDriver:\tknl_uncore\n\nSlot:\t0000:ff:15.1\nClass:\tSystem peripheral\nVendor:\tIntel Corporation\nDevice:\tDevice 7839\nSVendor:\tIntel Corporation\nSDevice:\tDevice 35cb\nRev:\t10\n\nSlot:\t0000:ff:15.2\nClass:\tSystem peripheral\nVendor:\tIntel Corporation\nDevice:\tDevice 781f\nSVendor:\tIntel Corporation\nSDevice:\tDevice 35cb\nRev:\t10\n\nSlot:\t0000:ff:15.6\nClass:\tSystem peripheral\nVendor:\tIntel Corporation\nDevice:\tDevice 7845\nRev:\t10\n\nSlot:\t0000:ff:15.7\nClass:\tSystem peripheral\nVendor:\tIntel Corporation\nDevice:\tDevice 7847\nRev:\t10\n\nSlot:\t0000:ff:16.0\nClass:\tSystem peripheral\nVendor:\tIntel Corporation\nDevice:\tDevice 7833\nSVendor:\tIntel Corporation\nSDevice:\tDevice 35cb\nRev:\t10\nDriver:\tknl_uncore\n\nSlot:\t0000:ff:16.1\nClass:\tSystem peripheral\nVendor:\tIntel Corporation\nDevice:\tDevice 7839\nSVendor:\tIntel Corporation\nSDevice:\tDevice 35cb\nRev:\t10\n\nSlot:\t0000:ff:16.2\nClass:\tSystem peripheral\nVendor:\tIntel Corporation\nDevice:\tDevice 781f\nSVendor:\tIntel Corporation\nSDevice:\tDevice 35cb\nRev:\t10\n\nSlot:\t0000:ff:18.0\nClass:\tSystem peripheral\nVendor:\tIntel Corporation\nDevice:\tDevice 7831\nSVendor:\tIntel Corporation\nSDevice:\tDevice 35cb\nRev:\t10\n\nSlot:\t0000:ff:18.1\nClass:\tSystem peripheral\nVendor:\tIntel Corporation\nDevice:\tDevice 7837\nSVendor:\tIntel Corporation\nSDevice:\tDevice 35cb\nRev:\t10\n\nSlot:\t0000:ff:18.2\nClass:\tSystem peripheral\nVendor:\tIntel Corporation\nDevice:\tDevice 7835\nSVendor:\tIntel Corporation\nSDevice:\tDevice 35cb\nRev:\t10\nDriver:\tknl_uncore\n\nSlot:\t0000:ff:19.0\nClass:\tSystem peripheral\nVendor:\tIntel Corporation\nDevice:\tDevice 7831\nSVendor:\tIntel Corporation\nSDevice:\tDevice 35cb\nRev:\t10\n\nSlot:\t0000:ff:19.1\nClass:\tSystem peripheral\nVendor:\tIntel Corporation\nDevice:\tDevice 7837\nSVendor:\tIntel Corporation\nSDevice:\tDevice 35cb\nRev:\t10\n\nSlot:\t0000:ff:19.2\nClass:\tSystem peripheral\nVendor:\tIntel Corporation\nDevice:\tDevice 7835\nSVendor:\tIntel Corporation\nSDevice:\tDevice 35cb\nRev:\t10\nDriver:\tknl_uncore\n\nSlot:\t0000:ff:1a.0\nClass:\tSystem peripheral\nVendor:\tIntel Corporation\nDevice:\tDevice 7831\nSVendor:\tIntel Corporation\nSDevice:\tDevice 35cb\nRev:\t10\n\nSlot:\t0000:ff:1a.1\nClass:\tSystem peripheral\nVendor:\tIntel Corporation\nDevice:\tDevice 7837\nSVendor:\tIntel Corporation\nSDevice:\tDevice 35cb\nRev:\t10\n\nSlot:\t0000:ff:1a.2\nClass:\tSystem peripheral\nVendor:\tIntel Corporation\nDevice:\tDevice 7835\nSVendor:\tIntel Corporation\nSDevice:\tDevice 35cb\nRev:\t10\nDriver:\tknl_uncore\n\nSlot:\t0000:ff:1b.0\nClass:\tSystem peripheral\nVendor:\tIntel Corporation\nDevice:\tDevice 7831\nSVendor:\tIntel Corporation\nSDevice:\tDevice 35cb\nRev:\t10\n\nSlot:\t0000:ff:1b.1\nClass:\tSystem peripheral\nVendor:\tIntel Corporation\nDevice:\tDevice 7837\nSVendor:\tIntel Corporation\nSDevice:\tDevice 35cb\nRev:\t10\n\nSlot:\t0000:ff:1b.2\nClass:\tSystem peripheral\nVendor:\tIntel Corporation\nDevice:\tDevice 7835\nSVendor:\tIntel Corporation\nSDevice:\tDevice 35cb\nRev:\t10\nDriver:\tknl_uncore\n\nSlot:\t0000:ff:1c.0\nClass:\tSystem peripheral\nVendor:\tIntel Corporation\nDevice:\tDevice 7831\nSVendor:\tIntel Corporation\nSDevice:\tDevice 35cb\nRev:\t10\n\nSlot:\t0000:ff:1c.1\nClass:\tSystem peripheral\nVendor:\tIntel Corporation\nDevice:\tDevice 7837\nSVendor:\tIntel Corporation\nSDevice:\tDevice 35cb\nRev:\t10\n\nSlot:\t0000:ff:1c.2\nClass:\tSystem peripheral\nVendor:\tIntel Corporation\nDevice:\tDevice 7835\nSVendor:\tIntel Corporation\nSDevice:\tDevice 35cb\nRev:\t10\nDriver:\tknl_uncore\n\nSlot:\t0000:ff:1d.0\nClass:\tSystem peripheral\nVendor:\tIntel Corporation\nDevice:\tDevice 7831\nSVendor:\tIntel Corporation\nSDevice:\tDevice 35cb\nRev:\t10\n\nSlot:\t0000:ff:1d.1\nClass:\tSystem peripheral\nVendor:\tIntel Corporation\nDevice:\tDevice 7837\nSVendor:\tIntel Corporation\nSDevice:\tDevice 35cb\nRev:\t10\n\nSlot:\t0000:ff:1d.2\nClass:\tSystem peripheral\nVendor:\tIntel Corporation\nDevice:\tDevice 7835\nSVendor:\tIntel Corporation\nSDevice:\tDevice 35cb\nRev:\t10\nDriver:\tknl_uncore\n\nSlot:\t0000:ff:1e.0\nClass:\tSystem peripheral\nVendor:\tIntel Corporation\nDevice:\tDevice 7831\nSVendor:\tIntel Corporation\nSDevice:\tDevice 35cb\nRev:\t10\n\nSlot:\t0000:ff:1e.1\nClass:\tSystem peripheral\nVendor:\tIntel Corporation\nDevice:\tDevice 7837\nSVendor:\tIntel Corporation\nSDevice:\tDevice 35cb\nRev:\t10\n\nSlot:\t0000:ff:1e.2\nClass:\tSystem peripheral\nVendor:\tIntel Corporation\nDevice:\tDevice 7835\nSVendor:\tIntel Corporation\nSDevice:\tDevice 35cb\nRev:\t10\nDriver:\tknl_uncore\n\nSlot:\t0000:ff:1f.0\nClass:\tSystem peripheral\nVendor:\tIntel Corporation\nDevice:\tDevice 7831\nSVendor:\tIntel Corporation\nSDevice:\tDevice 35cb\nRev:\t10\n\nSlot:\t0000:ff:1f.1\nClass:\tSystem peripheral\nVendor:\tIntel Corporation\nDevice:\tDevice 7837\nSVendor:\tIntel Corporation\nSDevice:\tDevice 35cb\nRev:\t10\n\nSlot:\t0000:ff:1f.2\nClass:\tSystem peripheral\nVendor:\tIntel Corporation\nDevice:\tDevice 7835\nSVendor:\tIntel Corporation\nSDevice:\tDevice 35cb\nRev:\t10\nDriver:\tknl_uncore\n\n\n'
p68
sS'numactl --hardware'
p69
S'available: 2 nodes (0-1)\nnode 0 cpus: 0 1 2 3 4 5 6 7 8 9 10 11 12 13 14 15 16 17 18 19 20 21 22 23 24 25 26 27 28 29 30 31 32 33 34 35 36 37 38 39 40 41 42 43 44 45 46 47 48 49 50 51 52 53 54 55 56 57 58 59 60 61 62 63 64 65 66 67 68 69 70 71 72 73 74 75 76 77 78 79 80 81 82 83 84 85 86 87 88 89 90 91 92 93 94 95 96 97 98 99 100 101 102 103 104 105 106 107 108 109 110 111 112 113 114 115 116 117 118 119 120 121 122 123 124 125 126 127 128 129 130 131 132 133 134 135 136 137 138 139 140 141 142 143 144 145 146 147 148 149 150 151 152 153 154 155 156 157 158 159 160 161 162 163 164 165 166 167 168 169 170 171 172 173 174 175 176 177 178 179 180 181 182 183 184 185 186 187 188 189 190 191 192 193 194 195 196 197 198 199 200 201 202 203 204 205 206 207 208 209 210 211 212 213 214 215 216 217 218 219 220 221 222 223 224 225 226 227 228 229 230 231 232 233 234 235 236 237 238 239 240 241 242 243 244 245 246 247 248 249 250 251 252 253 254 255\nnode 0 size: 96623 MB\nnode 0 free: 95683 MB\nnode 1 cpus:\nnode 1 size: 16125 MB\nnode 1 free: 15925 MB\nnode distances:\nnode   0   1 \n  0:  10  31 \n  1:  31  10 \n\n'
p70
sS'dmidecode -t slot'
p71
S'# dmidecode 3.0\nScanning /dev/mem for entry point.\n\n/sys/firmware/dmi/tables/smbios_entry_point: Permission denied\n/dev/mem: Permission denied\n'
p72
sS'cat /proc/cmdline'
p73
S'BOOT_IMAGE=/boot/vmlinuz-4.4.59-92.17-default root=UUID=7269a146-8a5a-47e6-af8e-d40335ac1e72 crashkernel=auto intel_iommu=on hugepagesz=2048k hugepages=0 hugepagesz=1048576k hugepages=0 splash=silent quiet showopts resume=/dev/sda1 splash=silent quiet showopts\n\n'
p74
sS'uname --hardware-platform'
p75
S'x86_64\n\n'
p76
sS'dmidecode -t memory'
p77
S'# dmidecode 3.0\nScanning /dev/mem for entry point.\n\n/sys/firmware/dmi/tables/smbios_entry_point: Permission denied\n/dev/mem: Permission denied\n'
p78
sS'uname --operating-system'
p79
S'GNU/Linux\n\n'
p80
sS'dmidecode -t cache'
p81
S'# dmidecode 3.0\nScanning /dev/mem for entry point.\n\n/sys/firmware/dmi/tables/smbios_entry_point: Permission denied\n/dev/mem: Permission denied\n'
p82
sS'dmidecode -t connector'
p83
S'# dmidecode 3.0\nScanning /dev/mem for entry point.\n\n/sys/firmware/dmi/tables/smbios_entry_point: Permission denied\n/dev/mem: Permission denied\n'
p84
sS'dmidecode -t system'
p85
S'# dmidecode 3.0\nScanning /dev/mem for entry point.\n\n/sys/firmware/dmi/tables/smbios_entry_point: Permission denied\n/dev/mem: Permission denied\n'
p86
sS'uname --nodename'
p87
S'Perf-KNL-D-B0-32tiles-8MCDRAM-03\n\n'
p88
ssbsbsS'_xName'
p89
(dp90
S'linpack'
p91
S'matrix_size'
p92
sS'stream'
p93
S'omp_num_threads'
p94
sS'libxsmm_conv'
p95
g94
sS'dgemm'
p96
S'K_size'
p97
sS'hpcg'
p98
S'problem_size'
p99
sS'hplinpack'
p100
g99
sS'sgemm'
p101
g97
sS'fio'
p102
S'size'
p103
sS'mkl_conv'
p104
g94
ssS'_store'
p105
(dp106
g91
(dp107
S'local__mcdram_7230_SuSE-12_micperf-1.6.0_local_scaling'
p108
(lp109
g1
(cmicp.stats
Stats
p110
g3
NtRp111
(dp112
S'params'
p113
g1
(cmicp.params
Params
p114
g3
NtRp115
(dp116
S'_paramNames'
p117
(lp118
g94
ag92
aS'num_rep'
p119
aS'lead_dim'
p120
asS'_defaults'
p121
(dp122
g94
S'64'
p123
sg120
S'36928'
p124
sg92
S'36864'
p125
sg119
S'3'
ssS'_params'
p126
(dp127
g94
S'64'
p128
sg120
S'2112'
p129
sg92
S'2048'
p130
sg119
S'3'
ssS'_paramQuiet'
p131
(lp132
g94
asbsS'perf'
p133
(dp134
S'Computation.Avg'
p135
(dp136
S'units'
p137
S'GFlops'
p138
sS'rollup'
p139
I01
sS'value'
p140
S'144.4677'
p141
sssS'desc'
p142
S'2048 x 2048 MKL DP LINPACK with 64 threads and 3 iterations'
p143
sbag1
(g110
g3
NtRp144
(dp145
g113
g1
(g114
g3
NtRp146
(dp147
g117
(lp148
g94
ag92
ag119
ag120
asg121
(dp149
g94
g123
sg120
g124
sg92
g125
sg119
S'3'
ssg126
(dp150
g94
S'64'
p151
sg120
S'4160'
p152
sg92
S'4096'
p153
sg119
S'3'
ssg131
(lp154
g94
asbsg133
(dp155
g135
(dp156
g137
g138
sg139
I01
sg140
S'449.0738'
p157
sssg142
S'4096 x 4096 MKL DP LINPACK with 64 threads and 3 iterations'
p158
sbag1
(g110
g3
NtRp159
(dp160
g113
g1
(g114
g3
NtRp161
(dp162
g117
(lp163
g94
ag92
ag119
ag120
asg121
(dp164
g94
g123
sg120
g124
sg92
g125
sg119
S'3'
ssg126
(dp165
g94
S'64'
p166
sg120
S'6208'
p167
sg92
S'6144'
p168
sg119
S'3'
ssg131
(lp169
g94
asbsg133
(dp170
g135
(dp171
g137
g138
sg139
I01
sg140
S'822.1204'
p172
sssg142
S'6144 x 6144 MKL DP LINPACK with 64 threads and 3 iterations'
p173
sbag1
(g110
g3
NtRp174
(dp175
g113
g1
(g114
g3
NtRp176
(dp177
g117
(lp178
g94
ag92
ag119
ag120
asg121
(dp179
g94
g123
sg120
g124
sg92
g125
sg119
S'3'
ssg126
(dp180
g94
S'64'
p181
sg120
S'8256'
p182
sg92
S'8192'
p183
sg119
S'3'
ssg131
(lp184
g94
asbsg133
(dp185
g135
(dp186
g137
g138
sg139
I01
sg140
S'1090.3538'
p187
sssg142
S'8192 x 8192 MKL DP LINPACK with 64 threads and 3 iterations'
p188
sbag1
(g110
g3
NtRp189
(dp190
g113
g1
(g114
g3
NtRp191
(dp192
g117
(lp193
g94
ag92
ag119
ag120
asg121
(dp194
g94
g123
sg120
g124
sg92
g125
sg119
S'3'
ssg126
(dp195
g94
S'64'
p196
sg120
S'10304'
p197
sg92
S'10240'
p198
sg119
S'3'
ssg131
(lp199
g94
asbsg133
(dp200
g135
(dp201
g137
g138
sg139
I01
sg140
S'1272.6989'
p202
sssg142
S'10240 x 10240 MKL DP LINPACK with 64 threads and 3 iterations'
p203
sbag1
(g110
g3
NtRp204
(dp205
g113
g1
(g114
g3
NtRp206
(dp207
g117
(lp208
g94
ag92
ag119
ag120
asg121
(dp209
g94
g123
sg120
g124
sg92
g125
sg119
S'3'
ssg126
(dp210
g94
S'64'
p211
sg120
S'12352'
p212
sg92
S'12288'
p213
sg119
S'3'
ssg131
(lp214
g94
asbsg133
(dp215
g135
(dp216
g137
g138
sg139
I01
sg140
S'1391.2567'
p217
sssg142
S'12288 x 12288 MKL DP LINPACK with 64 threads and 3 iterations'
p218
sbag1
(g110
g3
NtRp219
(dp220
g113
g1
(g114
g3
NtRp221
(dp222
g117
(lp223
g94
ag92
ag119
ag120
asg121
(dp224
g94
g123
sg120
g124
sg92
g125
sg119
S'3'
ssg126
(dp225
g94
S'64'
p226
sg120
S'14400'
p227
sg92
S'14336'
p228
sg119
S'3'
ssg131
(lp229
g94
asbsg133
(dp230
g135
(dp231
g137
g138
sg139
I01
sg140
S'1457.9759'
p232
sssg142
S'14336 x 14336 MKL DP LINPACK with 64 threads and 3 iterations'
p233
sbag1
(g110
g3
NtRp234
(dp235
g113
g1
(g114
g3
NtRp236
(dp237
g117
(lp238
g94
ag92
ag119
ag120
asg121
(dp239
g94
g123
sg120
g124
sg92
g125
sg119
S'3'
ssg126
(dp240
g94
S'64'
p241
sg120
S'16448'
p242
sg92
S'16384'
p243
sg119
S'3'
ssg131
(lp244
g94
asbsg133
(dp245
g135
(dp246
g137
g138
sg139
I01
sg140
S'1483.7574'
p247
sssg142
S'16384 x 16384 MKL DP LINPACK with 64 threads and 3 iterations'
p248
sbag1
(g110
g3
NtRp249
(dp250
g113
g1
(g114
g3
NtRp251
(dp252
g117
(lp253
g94
ag92
ag119
ag120
asg121
(dp254
g94
g123
sg120
g124
sg92
g125
sg119
S'3'
ssg126
(dp255
g94
S'64'
p256
sg120
S'18496'
p257
sg92
S'18432'
p258
sg119
S'3'
ssg131
(lp259
g94
asbsg133
(dp260
g135
(dp261
g137
g138
sg139
I01
sg140
S'1515.8795'
p262
sssg142
S'18432 x 18432 MKL DP LINPACK with 64 threads and 3 iterations'
p263
sbag1
(g110
g3
NtRp264
(dp265
g113
g1
(g114
g3
NtRp266
(dp267
g117
(lp268
g94
ag92
ag119
ag120
asg121
(dp269
g94
g123
sg120
g124
sg92
g125
sg119
S'3'
ssg126
(dp270
g94
S'64'
p271
sg120
S'20544'
p272
sg92
S'20480'
p273
sg119
S'3'
ssg131
(lp274
g94
asbsg133
(dp275
g135
(dp276
g137
g138
sg139
I01
sg140
S'1530.2436'
p277
sssg142
S'20480 x 20480 MKL DP LINPACK with 64 threads and 3 iterations'
p278
sbag1
(g110
g3
NtRp279
(dp280
g113
g1
(g114
g3
NtRp281
(dp282
g117
(lp283
g94
ag92
ag119
ag120
asg121
(dp284
g94
g123
sg120
g124
sg92
g125
sg119
S'3'
ssg126
(dp285
g94
S'64'
p286
sg120
S'22592'
p287
sg92
S'22528'
p288
sg119
S'3'
ssg131
(lp289
g94
asbsg133
(dp290
g135
(dp291
g137
g138
sg139
I01
sg140
S'1521.4172'
p292
sssg142
S'22528 x 22528 MKL DP LINPACK with 64 threads and 3 iterations'
p293
sbag1
(g110
g3
NtRp294
(dp295
g113
g1
(g114
g3
NtRp296
(dp297
g117
(lp298
g94
ag92
ag119
ag120
asg121
(dp299
g94
g123
sg120
g124
sg92
g125
sg119
S'3'
ssg126
(dp300
g94
S'64'
p301
sg120
S'24640'
p302
sg92
S'24576'
p303
sg119
S'3'
ssg131
(lp304
g94
asbsg133
(dp305
g135
(dp306
g137
g138
sg139
I01
sg140
S'1545.2257'
p307
sssg142
S'24576 x 24576 MKL DP LINPACK with 64 threads and 3 iterations'
p308
sbag1
(g110
g3
NtRp309
(dp310
g113
g1
(g114
g3
NtRp311
(dp312
g117
(lp313
g94
ag92
ag119
ag120
asg121
(dp314
g94
g123
sg120
g124
sg92
g125
sg119
S'3'
ssg126
(dp315
g94
S'64'
p316
sg120
S'26688'
p317
sg92
S'26624'
p318
sg119
S'3'
ssg131
(lp319
g94
asbsg133
(dp320
g135
(dp321
g137
g138
sg139
I01
sg140
S'1549.3384'
p322
sssg142
S'26624 x 26624 MKL DP LINPACK with 64 threads and 3 iterations'
p323
sbag1
(g110
g3
NtRp324
(dp325
g113
g1
(g114
g3
NtRp326
(dp327
g117
(lp328
g94
ag92
ag119
ag120
asg121
(dp329
g94
g123
sg120
g124
sg92
g125
sg119
S'3'
ssg126
(dp330
g94
S'64'
p331
sg120
S'28736'
p332
sg92
S'28672'
p333
sg119
S'3'
ssg131
(lp334
g94
asbsg133
(dp335
g135
(dp336
g137
g138
sg139
I01
sg140
S'1563.4941'
p337
sssg142
S'28672 x 28672 MKL DP LINPACK with 64 threads and 3 iterations'
p338
sbag1
(g110
g3
NtRp339
(dp340
g113
g1
(g114
g3
NtRp341
(dp342
g117
(lp343
g94
ag92
ag119
ag120
asg121
(dp344
g94
g123
sg120
g124
sg92
g125
sg119
S'3'
ssg126
(dp345
g94
S'64'
p346
sg120
S'30784'
p347
sg92
S'30720'
p348
sg119
S'3'
ssg131
(lp349
g94
asbsg133
(dp350
g135
(dp351
g137
g138
sg139
I01
sg140
S'1568.7522'
p352
sssg142
S'30720 x 30720 MKL DP LINPACK with 64 threads and 3 iterations'
p353
sbag1
(g110
g3
NtRp354
(dp355
g113
g1
(g114
g3
NtRp356
(dp357
g117
(lp358
g94
ag92
ag119
ag120
asg121
(dp359
g94
g123
sg120
g124
sg92
g125
sg119
S'3'
ssg126
(dp360
g94
S'64'
p361
sg120
S'32832'
p362
sg92
S'32768'
p363
sg119
S'3'
ssg131
(lp364
g94
asbsg133
(dp365
g135
(dp366
g137
g138
sg139
I01
sg140
S'1574.0083'
p367
sssg142
S'32768 x 32768 MKL DP LINPACK with 64 threads and 3 iterations'
p368
sbag1
(g110
g3
NtRp369
(dp370
g113
g1
(g114
g3
NtRp371
(dp372
g117
(lp373
g94
ag92
ag119
ag120
asg121
(dp374
g94
g123
sg120
g124
sg92
g125
sg119
S'3'
ssg126
(dp375
g94
S'64'
p376
sg120
S'34880'
p377
sg92
S'34816'
p378
sg119
S'3'
ssg131
(lp379
g94
asbsg133
(dp380
g135
(dp381
g137
g138
sg139
I01
sg140
S'1588.3265'
p382
sssg142
S'34816 x 34816 MKL DP LINPACK with 64 threads and 3 iterations'
p383
sbag1
(g110
g3
NtRp384
(dp385
g113
g1
(g114
g3
NtRp386
(dp387
g117
(lp388
g94
ag92
ag119
ag120
asg121
(dp389
g94
g123
sg120
g124
sg92
g125
sg119
S'3'
ssg126
(dp390
g94
S'64'
p391
sg120
S'36928'
p392
sg92
S'36864'
p393
sg119
S'3'
ssg131
(lp394
g94
asbsg133
(dp395
g135
(dp396
g137
g138
sg139
I01
sg140
S'1576.2156'
p397
sssg142
S'36864 x 36864 MKL DP LINPACK with 64 threads and 3 iterations'
p398
sbassg93
(dp399
S'local__mcdram_7230_SuSE-12_micperf-1.6.0_local_scaling'
p400
(lp401
g1
(g110
g3
NtRp402
(dp403
g113
g1
(g114
g3
NtRp404
(dp405
g117
(lp406
g94
asg121
(dp407
g94
S'64'
p408
ssg126
(dp409
g94
S'1'
ssg131
(lp410
g94
asbsg133
(dp411
S'Task.Bandwidth'
p412
(dp413
g137
S'GB/s'
p414
sg139
I01
sg140
S'15.2313'
p415
sssg142
S'STREAM version $Revision: 5.10 $ with 1 threads'
p416
sbag1
(g110
g3
NtRp417
(dp418
g113
g1
(g114
g3
NtRp419
(dp420
g117
(lp421
g94
asg121
(dp422
g94
g408
ssg126
(dp423
g94
S'2'
ssg131
(lp424
g94
asbsg133
(dp425
g412
(dp426
g137
g414
sg139
I01
sg140
S'18.9864'
p427
sssg142
S'STREAM version $Revision: 5.10 $ with 2 threads'
p428
sbag1
(g110
g3
NtRp429
(dp430
g113
g1
(g114
g3
NtRp431
(dp432
g117
(lp433
g94
asg121
(dp434
g94
g408
ssg126
(dp435
g94
S'3'
ssg131
(lp436
g94
asbsg133
(dp437
g412
(dp438
g137
g414
sg139
I01
sg140
S'28.4813'
p439
sssg142
S'STREAM version $Revision: 5.10 $ with 3 threads'
p440
sbag1
(g110
g3
NtRp441
(dp442
g113
g1
(g114
g3
NtRp443
(dp444
g117
(lp445
g94
asg121
(dp446
g94
g408
ssg126
(dp447
g94
S'4'
ssg131
(lp448
g94
asbsg133
(dp449
g412
(dp450
g137
g414
sg139
I01
sg140
S'37.9651'
p451
sssg142
S'STREAM version $Revision: 5.10 $ with 4 threads'
p452
sbag1
(g110
g3
NtRp453
(dp454
g113
g1
(g114
g3
NtRp455
(dp456
g117
(lp457
g94
asg121
(dp458
g94
g408
ssg126
(dp459
g94
S'5'
ssg131
(lp460
g94
asbsg133
(dp461
g412
(dp462
g137
g414
sg139
I01
sg140
S'47.4439'
p463
sssg142
S'STREAM version $Revision: 5.10 $ with 5 threads'
p464
sbag1
(g110
g3
NtRp465
(dp466
g113
g1
(g114
g3
NtRp467
(dp468
g117
(lp469
g94
asg121
(dp470
g94
g408
ssg126
(dp471
g94
S'6'
ssg131
(lp472
g94
asbsg133
(dp473
g412
(dp474
g137
g414
sg139
I01
sg140
S'56.9141'
p475
sssg142
S'STREAM version $Revision: 5.10 $ with 6 threads'
p476
sbag1
(g110
g3
NtRp477
(dp478
g113
g1
(g114
g3
NtRp479
(dp480
g117
(lp481
g94
asg121
(dp482
g94
g408
ssg126
(dp483
g94
S'7'
ssg131
(lp484
g94
asbsg133
(dp485
g412
(dp486
g137
g414
sg139
I01
sg140
S'66.3903'
p487
sssg142
S'STREAM version $Revision: 5.10 $ with 7 threads'
p488
sbag1
(g110
g3
NtRp489
(dp490
g113
g1
(g114
g3
NtRp491
(dp492
g117
(lp493
g94
asg121
(dp494
g94
g408
ssg126
(dp495
g94
S'8'
ssg131
(lp496
g94
asbsg133
(dp497
g412
(dp498
g137
g414
sg139
I01
sg140
S'75.8069'
p499
sssg142
S'STREAM version $Revision: 5.10 $ with 8 threads'
p500
sbag1
(g110
g3
NtRp501
(dp502
g113
g1
(g114
g3
NtRp503
(dp504
g117
(lp505
g94
asg121
(dp506
g94
g408
ssg126
(dp507
g94
S'9'
ssg131
(lp508
g94
asbsg133
(dp509
g412
(dp510
g137
g414
sg139
I01
sg140
S'85.3147'
p511
sssg142
S'STREAM version $Revision: 5.10 $ with 9 threads'
p512
sbag1
(g110
g3
NtRp513
(dp514
g113
g1
(g114
g3
NtRp515
(dp516
g117
(lp517
g94
asg121
(dp518
g94
g408
ssg126
(dp519
g94
S'10'
p520
ssg131
(lp521
g94
asbsg133
(dp522
g412
(dp523
g137
g414
sg139
I01
sg140
S'94.7099'
p524
sssg142
S'STREAM version $Revision: 5.10 $ with 10 threads'
p525
sbag1
(g110
g3
NtRp526
(dp527
g113
g1
(g114
g3
NtRp528
(dp529
g117
(lp530
g94
asg121
(dp531
g94
g408
ssg126
(dp532
g94
S'11'
p533
ssg131
(lp534
g94
asbsg133
(dp535
g412
(dp536
g137
g414
sg139
I01
sg140
S'104.1288'
p537
sssg142
S'STREAM version $Revision: 5.10 $ with 11 threads'
p538
sbag1
(g110
g3
NtRp539
(dp540
g113
g1
(g114
g3
NtRp541
(dp542
g117
(lp543
g94
asg121
(dp544
g94
g408
ssg126
(dp545
g94
S'12'
p546
ssg131
(lp547
g94
asbsg133
(dp548
g412
(dp549
g137
g414
sg139
I01
sg140
S'113.5994'
p550
sssg142
S'STREAM version $Revision: 5.10 $ with 12 threads'
p551
sbag1
(g110
g3
NtRp552
(dp553
g113
g1
(g114
g3
NtRp554
(dp555
g117
(lp556
g94
asg121
(dp557
g94
g408
ssg126
(dp558
g94
S'13'
p559
ssg131
(lp560
g94
asbsg133
(dp561
g412
(dp562
g137
g414
sg139
I01
sg140
S'122.9382'
p563
sssg142
S'STREAM version $Revision: 5.10 $ with 13 threads'
p564
sbag1
(g110
g3
NtRp565
(dp566
g113
g1
(g114
g3
NtRp567
(dp568
g117
(lp569
g94
asg121
(dp570
g94
g408
ssg126
(dp571
g94
S'14'
p572
ssg131
(lp573
g94
asbsg133
(dp574
g412
(dp575
g137
g414
sg139
I01
sg140
S'132.4354'
p576
sssg142
S'STREAM version $Revision: 5.10 $ with 14 threads'
p577
sbag1
(g110
g3
NtRp578
(dp579
g113
g1
(g114
g3
NtRp580
(dp581
g117
(lp582
g94
asg121
(dp583
g94
g408
ssg126
(dp584
g94
S'15'
p585
ssg131
(lp586
g94
asbsg133
(dp587
g412
(dp588
g137
g414
sg139
I01
sg140
S'141.7231'
p589
sssg142
S'STREAM version $Revision: 5.10 $ with 15 threads'
p590
sbag1
(g110
g3
NtRp591
(dp592
g113
g1
(g114
g3
NtRp593
(dp594
g117
(lp595
g94
asg121
(dp596
g94
g408
ssg126
(dp597
g94
S'16'
p598
ssg131
(lp599
g94
asbsg133
(dp600
g412
(dp601
g137
g414
sg139
I01
sg140
S'151.1674'
p602
sssg142
S'STREAM version $Revision: 5.10 $ with 16 threads'
p603
sbag1
(g110
g3
NtRp604
(dp605
g113
g1
(g114
g3
NtRp606
(dp607
g117
(lp608
g94
asg121
(dp609
g94
g408
ssg126
(dp610
g94
S'17'
p611
ssg131
(lp612
g94
asbsg133
(dp613
g412
(dp614
g137
g414
sg139
I01
sg140
S'160.5355'
p615
sssg142
S'STREAM version $Revision: 5.10 $ with 17 threads'
p616
sbag1
(g110
g3
NtRp617
(dp618
g113
g1
(g114
g3
NtRp619
(dp620
g117
(lp621
g94
asg121
(dp622
g94
g408
ssg126
(dp623
g94
S'18'
p624
ssg131
(lp625
g94
asbsg133
(dp626
g412
(dp627
g137
g414
sg139
I01
sg140
S'169.8018'
p628
sssg142
S'STREAM version $Revision: 5.10 $ with 18 threads'
p629
sbag1
(g110
g3
NtRp630
(dp631
g113
g1
(g114
g3
NtRp632
(dp633
g117
(lp634
g94
asg121
(dp635
g94
g408
ssg126
(dp636
g94
S'19'
p637
ssg131
(lp638
g94
asbsg133
(dp639
g412
(dp640
g137
g414
sg139
I01
sg140
S'179.2059'
p641
sssg142
S'STREAM version $Revision: 5.10 $ with 19 threads'
p642
sbag1
(g110
g3
NtRp643
(dp644
g113
g1
(g114
g3
NtRp645
(dp646
g117
(lp647
g94
asg121
(dp648
g94
g408
ssg126
(dp649
g94
S'20'
p650
ssg131
(lp651
g94
asbsg133
(dp652
g412
(dp653
g137
g414
sg139
I01
sg140
S'188.4639'
p654
sssg142
S'STREAM version $Revision: 5.10 $ with 20 threads'
p655
sbag1
(g110
g3
NtRp656
(dp657
g113
g1
(g114
g3
NtRp658
(dp659
g117
(lp660
g94
asg121
(dp661
g94
g408
ssg126
(dp662
g94
S'21'
p663
ssg131
(lp664
g94
asbsg133
(dp665
g412
(dp666
g137
g414
sg139
I01
sg140
S'197.6333'
p667
sssg142
S'STREAM version $Revision: 5.10 $ with 21 threads'
p668
sbag1
(g110
g3
NtRp669
(dp670
g113
g1
(g114
g3
NtRp671
(dp672
g117
(lp673
g94
asg121
(dp674
g94
g408
ssg126
(dp675
g94
S'22'
p676
ssg131
(lp677
g94
asbsg133
(dp678
g412
(dp679
g137
g414
sg139
I01
sg140
S'207.0928'
p680
sssg142
S'STREAM version $Revision: 5.10 $ with 22 threads'
p681
sbag1
(g110
g3
NtRp682
(dp683
g113
g1
(g114
g3
NtRp684
(dp685
g117
(lp686
g94
asg121
(dp687
g94
g408
ssg126
(dp688
g94
S'23'
p689
ssg131
(lp690
g94
asbsg133
(dp691
g412
(dp692
g137
g414
sg139
I01
sg140
S'216.4293'
p693
sssg142
S'STREAM version $Revision: 5.10 $ with 23 threads'
p694
sbag1
(g110
g3
NtRp695
(dp696
g113
g1
(g114
g3
NtRp697
(dp698
g117
(lp699
g94
asg121
(dp700
g94
g408
ssg126
(dp701
g94
S'24'
p702
ssg131
(lp703
g94
asbsg133
(dp704
g412
(dp705
g137
g414
sg139
I01
sg140
S'225.7183'
p706
sssg142
S'STREAM version $Revision: 5.10 $ with 24 threads'
p707
sbag1
(g110
g3
NtRp708
(dp709
g113
g1
(g114
g3
NtRp710
(dp711
g117
(lp712
g94
asg121
(dp713
g94
g408
ssg126
(dp714
g94
S'25'
p715
ssg131
(lp716
g94
asbsg133
(dp717
g412
(dp718
g137
g414
sg139
I01
sg140
S'234.9287'
p719
sssg142
S'STREAM version $Revision: 5.10 $ with 25 threads'
p720
sbag1
(g110
g3
NtRp721
(dp722
g113
g1
(g114
g3
NtRp723
(dp724
g117
(lp725
g94
asg121
(dp726
g94
g408
ssg126
(dp727
g94
S'26'
p728
ssg131
(lp729
g94
asbsg133
(dp730
g412
(dp731
g137
g414
sg139
I01
sg140
S'244.0785'
p732
sssg142
S'STREAM version $Revision: 5.10 $ with 26 threads'
p733
sbag1
(g110
g3
NtRp734
(dp735
g113
g1
(g114
g3
NtRp736
(dp737
g117
(lp738
g94
asg121
(dp739
g94
g408
ssg126
(dp740
g94
S'27'
p741
ssg131
(lp742
g94
asbsg133
(dp743
g412
(dp744
g137
g414
sg139
I01
sg140
S'253.4203'
p745
sssg142
S'STREAM version $Revision: 5.10 $ with 27 threads'
p746
sbag1
(g110
g3
NtRp747
(dp748
g113
g1
(g114
g3
NtRp749
(dp750
g117
(lp751
g94
asg121
(dp752
g94
g408
ssg126
(dp753
g94
S'28'
p754
ssg131
(lp755
g94
asbsg133
(dp756
g412
(dp757
g137
g414
sg139
I01
sg140
S'262.3361'
p758
sssg142
S'STREAM version $Revision: 5.10 $ with 28 threads'
p759
sbag1
(g110
g3
NtRp760
(dp761
g113
g1
(g114
g3
NtRp762
(dp763
g117
(lp764
g94
asg121
(dp765
g94
g408
ssg126
(dp766
g94
S'29'
p767
ssg131
(lp768
g94
asbsg133
(dp769
g412
(dp770
g137
g414
sg139
I01
sg140
S'271.2383'
p771
sssg142
S'STREAM version $Revision: 5.10 $ with 29 threads'
p772
sbag1
(g110
g3
NtRp773
(dp774
g113
g1
(g114
g3
NtRp775
(dp776
g117
(lp777
g94
asg121
(dp778
g94
g408
ssg126
(dp779
g94
S'30'
p780
ssg131
(lp781
g94
asbsg133
(dp782
g412
(dp783
g137
g414
sg139
I01
sg140
S'280.6068'
p784
sssg142
S'STREAM version $Revision: 5.10 $ with 30 threads'
p785
sbag1
(g110
g3
NtRp786
(dp787
g113
g1
(g114
g3
NtRp788
(dp789
g117
(lp790
g94
asg121
(dp791
g94
g408
ssg126
(dp792
g94
S'31'
p793
ssg131
(lp794
g94
asbsg133
(dp795
g412
(dp796
g137
g414
sg139
I01
sg140
S'289.4313'
p797
sssg142
S'STREAM version $Revision: 5.10 $ with 31 threads'
p798
sbag1
(g110
g3
NtRp799
(dp800
g113
g1
(g114
g3
NtRp801
(dp802
g117
(lp803
g94
asg121
(dp804
g94
g408
ssg126
(dp805
g94
S'32'
p806
ssg131
(lp807
g94
asbsg133
(dp808
g412
(dp809
g137
g414
sg139
I01
sg140
S'298.4827'
p810
sssg142
S'STREAM version $Revision: 5.10 $ with 32 threads'
p811
sbag1
(g110
g3
NtRp812
(dp813
g113
g1
(g114
g3
NtRp814
(dp815
g117
(lp816
g94
asg121
(dp817
g94
g408
ssg126
(dp818
g94
S'33'
p819
ssg131
(lp820
g94
asbsg133
(dp821
g412
(dp822
g137
g414
sg139
I01
sg140
S'307.1344'
p823
sssg142
S'STREAM version $Revision: 5.10 $ with 33 threads'
p824
sbag1
(g110
g3
NtRp825
(dp826
g113
g1
(g114
g3
NtRp827
(dp828
g117
(lp829
g94
asg121
(dp830
g94
g408
ssg126
(dp831
g94
S'34'
p832
ssg131
(lp833
g94
asbsg133
(dp834
g412
(dp835
g137
g414
sg139
I01
sg140
S'315.8684'
p836
sssg142
S'STREAM version $Revision: 5.10 $ with 34 threads'
p837
sbag1
(g110
g3
NtRp838
(dp839
g113
g1
(g114
g3
NtRp840
(dp841
g117
(lp842
g94
asg121
(dp843
g94
g408
ssg126
(dp844
g94
S'35'
p845
ssg131
(lp846
g94
asbsg133
(dp847
g412
(dp848
g137
g414
sg139
I01
sg140
S'325.0152'
p849
sssg142
S'STREAM version $Revision: 5.10 $ with 35 threads'
p850
sbag1
(g110
g3
NtRp851
(dp852
g113
g1
(g114
g3
NtRp853
(dp854
g117
(lp855
g94
asg121
(dp856
g94
g408
ssg126
(dp857
g94
S'36'
p858
ssg131
(lp859
g94
asbsg133
(dp860
g412
(dp861
g137
g414
sg139
I01
sg140
S'333.6156'
p862
sssg142
S'STREAM version $Revision: 5.10 $ with 36 threads'
p863
sbag1
(g110
g3
NtRp864
(dp865
g113
g1
(g114
g3
NtRp866
(dp867
g117
(lp868
g94
asg121
(dp869
g94
g408
ssg126
(dp870
g94
S'37'
p871
ssg131
(lp872
g94
asbsg133
(dp873
g412
(dp874
g137
g414
sg139
I01
sg140
S'342.1558'
p875
sssg142
S'STREAM version $Revision: 5.10 $ with 37 threads'
p876
sbag1
(g110
g3
NtRp877
(dp878
g113
g1
(g114
g3
NtRp879
(dp880
g117
(lp881
g94
asg121
(dp882
g94
g408
ssg126
(dp883
g94
S'38'
p884
ssg131
(lp885
g94
asbsg133
(dp886
g412
(dp887
g137
g414
sg139
I01
sg140
S'350.6096'
p888
sssg142
S'STREAM version $Revision: 5.10 $ with 38 threads'
p889
sbag1
(g110
g3
NtRp890
(dp891
g113
g1
(g114
g3
NtRp892
(dp893
g117
(lp894
g94
asg121
(dp895
g94
g408
ssg126
(dp896
g94
S'39'
p897
ssg131
(lp898
g94
asbsg133
(dp899
g412
(dp900
g137
g414
sg139
I01
sg140
S'359.131'
p901
sssg142
S'STREAM version $Revision: 5.10 $ with 39 threads'
p902
sbag1
(g110
g3
NtRp903
(dp904
g113
g1
(g114
g3
NtRp905
(dp906
g117
(lp907
g94
asg121
(dp908
g94
g408
ssg126
(dp909
g94
S'40'
p910
ssg131
(lp911
g94
asbsg133
(dp912
g412
(dp913
g137
g414
sg139
I01
sg140
S'367.7198'
p914
sssg142
S'STREAM version $Revision: 5.10 $ with 40 threads'
p915
sbag1
(g110
g3
NtRp916
(dp917
g113
g1
(g114
g3
NtRp918
(dp919
g117
(lp920
g94
asg121
(dp921
g94
g408
ssg126
(dp922
g94
S'41'
p923
ssg131
(lp924
g94
asbsg133
(dp925
g412
(dp926
g137
g414
sg139
I01
sg140
S'375.7408'
p927
sssg142
S'STREAM version $Revision: 5.10 $ with 41 threads'
p928
sbag1
(g110
g3
NtRp929
(dp930
g113
g1
(g114
g3
NtRp931
(dp932
g117
(lp933
g94
asg121
(dp934
g94
g408
ssg126
(dp935
g94
S'42'
p936
ssg131
(lp937
g94
asbsg133
(dp938
g412
(dp939
g137
g414
sg139
I01
sg140
S'384.0965'
p940
sssg142
S'STREAM version $Revision: 5.10 $ with 42 threads'
p941
sbag1
(g110
g3
NtRp942
(dp943
g113
g1
(g114
g3
NtRp944
(dp945
g117
(lp946
g94
asg121
(dp947
g94
g408
ssg126
(dp948
g94
S'43'
p949
ssg131
(lp950
g94
asbsg133
(dp951
g412
(dp952
g137
g414
sg139
I01
sg140
S'391.234'
p953
sssg142
S'STREAM version $Revision: 5.10 $ with 43 threads'
p954
sbag1
(g110
g3
NtRp955
(dp956
g113
g1
(g114
g3
NtRp957
(dp958
g117
(lp959
g94
asg121
(dp960
g94
g408
ssg126
(dp961
g94
S'44'
p962
ssg131
(lp963
g94
asbsg133
(dp964
g412
(dp965
g137
g414
sg139
I01
sg140
S'399.3585'
p966
sssg142
S'STREAM version $Revision: 5.10 $ with 44 threads'
p967
sbag1
(g110
g3
NtRp968
(dp969
g113
g1
(g114
g3
NtRp970
(dp971
g117
(lp972
g94
asg121
(dp973
g94
g408
ssg126
(dp974
g94
S'45'
p975
ssg131
(lp976
g94
asbsg133
(dp977
g412
(dp978
g137
g414
sg139
I01
sg140
S'410.0338'
p979
sssg142
S'STREAM version $Revision: 5.10 $ with 45 threads'
p980
sbag1
(g110
g3
NtRp981
(dp982
g113
g1
(g114
g3
NtRp983
(dp984
g117
(lp985
g94
asg121
(dp986
g94
g408
ssg126
(dp987
g94
S'46'
p988
ssg131
(lp989
g94
asbsg133
(dp990
g412
(dp991
g137
g414
sg139
I01
sg140
S'414.9192'
p992
sssg142
S'STREAM version $Revision: 5.10 $ with 46 threads'
p993
sbag1
(g110
g3
NtRp994
(dp995
g113
g1
(g114
g3
NtRp996
(dp997
g117
(lp998
g94
asg121
(dp999
g94
g408
ssg126
(dp1000
g94
S'47'
p1001
ssg131
(lp1002
g94
asbsg133
(dp1003
g412
(dp1004
g137
g414
sg139
I01
sg140
S'420.6903'
p1005
sssg142
S'STREAM version $Revision: 5.10 $ with 47 threads'
p1006
sbag1
(g110
g3
NtRp1007
(dp1008
g113
g1
(g114
g3
NtRp1009
(dp1010
g117
(lp1011
g94
asg121
(dp1012
g94
g408
ssg126
(dp1013
g94
S'48'
p1014
ssg131
(lp1015
g94
asbsg133
(dp1016
g412
(dp1017
g137
g414
sg139
I01
sg140
S'431.9444'
p1018
sssg142
S'STREAM version $Revision: 5.10 $ with 48 threads'
p1019
sbag1
(g110
g3
NtRp1020
(dp1021
g113
g1
(g114
g3
NtRp1022
(dp1023
g117
(lp1024
g94
asg121
(dp1025
g94
g408
ssg126
(dp1026
g94
S'49'
p1027
ssg131
(lp1028
g94
asbsg133
(dp1029
g412
(dp1030
g137
g414
sg139
I01
sg140
S'439.248'
p1031
sssg142
S'STREAM version $Revision: 5.10 $ with 49 threads'
p1032
sbag1
(g110
g3
NtRp1033
(dp1034
g113
g1
(g114
g3
NtRp1035
(dp1036
g117
(lp1037
g94
asg121
(dp1038
g94
g408
ssg126
(dp1039
g94
S'50'
p1040
ssg131
(lp1041
g94
asbsg133
(dp1042
g412
(dp1043
g137
g414
sg139
I01
sg140
S'445.5977'
p1044
sssg142
S'STREAM version $Revision: 5.10 $ with 50 threads'
p1045
sbag1
(g110
g3
NtRp1046
(dp1047
g113
g1
(g114
g3
NtRp1048
(dp1049
g117
(lp1050
g94
asg121
(dp1051
g94
g408
ssg126
(dp1052
g94
S'51'
p1053
ssg131
(lp1054
g94
asbsg133
(dp1055
g412
(dp1056
g137
g414
sg139
I01
sg140
S'451.0888'
p1057
sssg142
S'STREAM version $Revision: 5.10 $ with 51 threads'
p1058
sbag1
(g110
g3
NtRp1059
(dp1060
g113
g1
(g114
g3
NtRp1061
(dp1062
g117
(lp1063
g94
asg121
(dp1064
g94
g408
ssg126
(dp1065
g94
S'52'
p1066
ssg131
(lp1067
g94
asbsg133
(dp1068
g412
(dp1069
g137
g414
sg139
I01
sg140
S'453.9175'
p1070
sssg142
S'STREAM version $Revision: 5.10 $ with 52 threads'
p1071
sbag1
(g110
g3
NtRp1072
(dp1073
g113
g1
(g114
g3
NtRp1074
(dp1075
g117
(lp1076
g94
asg121
(dp1077
g94
g408
ssg126
(dp1078
g94
S'53'
p1079
ssg131
(lp1080
g94
asbsg133
(dp1081
g412
(dp1082
g137
g414
sg139
I01
sg140
S'464.4882'
p1083
sssg142
S'STREAM version $Revision: 5.10 $ with 53 threads'
p1084
sbag1
(g110
g3
NtRp1085
(dp1086
g113
g1
(g114
g3
NtRp1087
(dp1088
g117
(lp1089
g94
asg121
(dp1090
g94
g408
ssg126
(dp1091
g94
S'54'
p1092
ssg131
(lp1093
g94
asbsg133
(dp1094
g412
(dp1095
g137
g414
sg139
I01
sg140
S'470.0117'
p1096
sssg142
S'STREAM version $Revision: 5.10 $ with 54 threads'
p1097
sbag1
(g110
g3
NtRp1098
(dp1099
g113
g1
(g114
g3
NtRp1100
(dp1101
g117
(lp1102
g94
asg121
(dp1103
g94
g408
ssg126
(dp1104
g94
S'55'
p1105
ssg131
(lp1106
g94
asbsg133
(dp1107
g412
(dp1108
g137
g414
sg139
I01
sg140
S'475.8439'
p1109
sssg142
S'STREAM version $Revision: 5.10 $ with 55 threads'
p1110
sbag1
(g110
g3
NtRp1111
(dp1112
g113
g1
(g114
g3
NtRp1113
(dp1114
g117
(lp1115
g94
asg121
(dp1116
g94
g408
ssg126
(dp1117
g94
S'56'
p1118
ssg131
(lp1119
g94
asbsg133
(dp1120
g412
(dp1121
g137
g414
sg139
I01
sg140
S'479.5631'
p1122
sssg142
S'STREAM version $Revision: 5.10 $ with 56 threads'
p1123
sbag1
(g110
g3
NtRp1124
(dp1125
g113
g1
(g114
g3
NtRp1126
(dp1127
g117
(lp1128
g94
asg121
(dp1129
g94
g408
ssg126
(dp1130
g94
S'57'
p1131
ssg131
(lp1132
g94
asbsg133
(dp1133
g412
(dp1134
g137
g414
sg139
I01
sg140
S'483.0148'
p1135
sssg142
S'STREAM version $Revision: 5.10 $ with 57 threads'
p1136
sbag1
(g110
g3
NtRp1137
(dp1138
g113
g1
(g114
g3
NtRp1139
(dp1140
g117
(lp1141
g94
asg121
(dp1142
g94
g408
ssg126
(dp1143
g94
S'58'
p1144
ssg131
(lp1145
g94
asbsg133
(dp1146
g412
(dp1147
g137
g414
sg139
I01
sg140
S'486.9946'
p1148
sssg142
S'STREAM version $Revision: 5.10 $ with 58 threads'
p1149
sbag1
(g110
g3
NtRp1150
(dp1151
g113
g1
(g114
g3
NtRp1152
(dp1153
g117
(lp1154
g94
asg121
(dp1155
g94
g408
ssg126
(dp1156
g94
S'59'
p1157
ssg131
(lp1158
g94
asbsg133
(dp1159
g412
(dp1160
g137
g414
sg139
I01
sg140
S'488.2124'
p1161
sssg142
S'STREAM version $Revision: 5.10 $ with 59 threads'
p1162
sbag1
(g110
g3
NtRp1163
(dp1164
g113
g1
(g114
g3
NtRp1165
(dp1166
g117
(lp1167
g94
asg121
(dp1168
g94
g408
ssg126
(dp1169
g94
S'60'
p1170
ssg131
(lp1171
g94
asbsg133
(dp1172
g412
(dp1173
g137
g414
sg139
I01
sg140
S'488.5456'
p1174
sssg142
S'STREAM version $Revision: 5.10 $ with 60 threads'
p1175
sbag1
(g110
g3
NtRp1176
(dp1177
g113
g1
(g114
g3
NtRp1178
(dp1179
g117
(lp1180
g94
asg121
(dp1181
g94
g408
ssg126
(dp1182
g94
S'61'
p1183
ssg131
(lp1184
g94
asbsg133
(dp1185
g412
(dp1186
g137
g414
sg139
I01
sg140
S'489.0277'
p1187
sssg142
S'STREAM version $Revision: 5.10 $ with 61 threads'
p1188
sbag1
(g110
g3
NtRp1189
(dp1190
g113
g1
(g114
g3
NtRp1191
(dp1192
g117
(lp1193
g94
asg121
(dp1194
g94
g408
ssg126
(dp1195
g94
S'62'
p1196
ssg131
(lp1197
g94
asbsg133
(dp1198
g412
(dp1199
g137
g414
sg139
I01
sg140
S'486.5165'
p1200
sssg142
S'STREAM version $Revision: 5.10 $ with 62 threads'
p1201
sbag1
(g110
g3
NtRp1202
(dp1203
g113
g1
(g114
g3
NtRp1204
(dp1205
g117
(lp1206
g94
asg121
(dp1207
g94
g408
ssg126
(dp1208
g94
S'63'
p1209
ssg131
(lp1210
g94
asbsg133
(dp1211
g412
(dp1212
g137
g414
sg139
I01
sg140
S'483.1597'
p1213
sssg142
S'STREAM version $Revision: 5.10 $ with 63 threads'
p1214
sbag1
(g110
g3
NtRp1215
(dp1216
g113
g1
(g114
g3
NtRp1217
(dp1218
g117
(lp1219
g94
asg121
(dp1220
g94
g408
ssg126
(dp1221
g94
S'64'
p1222
ssg131
(lp1223
g94
asbsg133
(dp1224
g412
(dp1225
g137
g414
sg139
I01
sg140
S'479.2421'
p1226
sssg142
S'STREAM version $Revision: 5.10 $ with 64 threads'
p1227
sbassg95
(dp1228
S'local__mcdram_7230_SuSE-12_micperf-1.6.0_local_scaling'
p1229
(lp1230
g1
(g110
g3
NtRp1231
(dp1232
g113
g1
(g114
g3
NtRp1233
(dp1234
g117
(lp1235
g94
aS'iters'
p1236
aS'inpWidth'
p1237
aS'inpHeight'
p1238
aS'nImg'
p1239
aS'nIfm'
p1240
aS'nOfm'
p1241
aS'kw'
p1242
aS'kh'
p1243
aS'pad'
p1244
aS'stride'
p1245
asg121
(dp1246
g1240
S'3'
sg94
S'64'
p1247
sg1243
S'7'
sg1239
S'16'
p1248
sg1245
S'2'
sg1241
S'64'
p1249
sg1236
S'100'
p1250
sg1237
S'224'
p1251
sg1238
S'224'
p1252
sg1242
S'7'
sg1244
S'3'
ssg126
(dp1253
g1240
S'3'
sg1245
S'2'
sg94
g1247
sg1243
S'7'
sg1239
S'16'
p1254
sg1236
S'100'
p1255
sg1241
S'64'
p1256
sg1242
S'7'
sg1237
S'224'
p1257
sg1238
S'224'
p1258
sg1244
S'3'
ssg131
(lp1259
g94
asbsg133
(dp1260
S'Computation.Avg.NHWC/custom-Storage.FWD'
p1261
(dp1262
g137
g138
sg139
I01
sg140
F2502.5999999999999
ssS'Computation.Avg.NHWC/custom-Storage.UPD'
p1263
(dp1264
g137
g138
sg139
I01
sg140
F1020.7
ssS'Computation.Avg.custom-Storage.FWD'
p1265
(dp1266
g137
g138
sg139
I01
sg140
F2841
ssS'Computation.Avg.custom-Storage.UPD'
p1267
(dp1268
g137
g138
sg139
I01
sg140
F874.72000000000003
ssS'Computation.Avg.NHWC/RSCK-Storage.UPD'
p1269
(dp1270
g137
g138
sg139
I01
sg140
F1019
ssS'Computation.Avg.NHWC/RSCK-Storage.FWD'
p1271
(dp1272
g137
g138
sg139
I01
sg140
F2389.5
sssg142
S'W=224 H=224 C=3 N=16 K=64 R=7 S=7'
p1273
sbassg96
(dp1274
S'local__mcdram_7230_SuSE-12_micperf-1.6.0_local_scaling'
p1275
(lp1276
g1
(g110
g3
NtRp1277
(dp1278
g113
g1
(g114
g3
NtRp1279
(dp1280
g117
(lp1281
S'i_num_rep'
p1282
ag97
aS'n_num_thread'
p1283
aS'm_mode'
p1284
aS'N_size'
p1285
aS'M_size'
p1286
asg121
(dp1287
g1285
S'7680'
p1288
sg1282
S'3'
sg97
S'7680'
p1289
sg1283
S'0'
sg1284
S'NN'
p1290
sg1286
S'7680'
p1291
ssg126
(dp1292
g1282
S'3'
sg97
S'512'
p1293
sg1283
S'0'
sg1284
g1290
sg1285
S'512'
p1294
sg1286
S'512'
p1295
ssg131
(lp1296
sbsg133
(dp1297
S'Task.Computation.Avg'
p1298
(dp1299
g137
g138
sg139
I01
sg140
S'985.23'
p1300
sssg142
S'(M=512, N=512, K=512) MKL DGEMM with 64 (autodetected) threads and 3 iterations'
p1301
sbag1
(g110
g3
NtRp1302
(dp1303
g113
g1
(g114
g3
NtRp1304
(dp1305
g117
(lp1306
g1282
ag97
ag1283
ag1284
ag1285
ag1286
asg121
(dp1307
g1285
g1288
sg1282
S'3'
sg97
g1289
sg1283
S'0'
sg1284
g1290
sg1286
g1291
ssg126
(dp1308
g1282
S'3'
sg97
S'1024'
p1309
sg1283
S'0'
sg1284
g1290
sg1285
S'1024'
p1310
sg1286
S'1024'
p1311
ssg131
(lp1312
sbsg133
(dp1313
g1298
(dp1314
g137
g138
sg139
I01
sg140
S'874.62'
p1315
sssg142
S'(M=1024, N=1024, K=1024) MKL DGEMM with 64 (autodetected) threads and 3 iterations'
p1316
sbag1
(g110
g3
NtRp1317
(dp1318
g113
g1
(g114
g3
NtRp1319
(dp1320
g117
(lp1321
g1282
ag97
ag1283
ag1284
ag1285
ag1286
asg121
(dp1322
g1285
g1288
sg1282
S'3'
sg97
g1289
sg1283
S'0'
sg1284
g1290
sg1286
g1291
ssg126
(dp1323
g1282
S'3'
sg97
S'1536'
p1324
sg1283
S'0'
sg1284
g1290
sg1285
S'1536'
p1325
sg1286
S'1536'
p1326
ssg131
(lp1327
sbsg133
(dp1328
g1298
(dp1329
g137
g138
sg139
I01
sg140
S'1064.35'
p1330
sssg142
S'(M=1536, N=1536, K=1536) MKL DGEMM with 64 (autodetected) threads and 3 iterations'
p1331
sbag1
(g110
g3
NtRp1332
(dp1333
g113
g1
(g114
g3
NtRp1334
(dp1335
g117
(lp1336
g1282
ag97
ag1283
ag1284
ag1285
ag1286
asg121
(dp1337
g1285
g1288
sg1282
S'3'
sg97
g1289
sg1283
S'0'
sg1284
g1290
sg1286
g1291
ssg126
(dp1338
g1282
S'3'
sg97
S'2048'
p1339
sg1283
S'0'
sg1284
g1290
sg1285
S'2048'
p1340
sg1286
S'2048'
p1341
ssg131
(lp1342
sbsg133
(dp1343
g1298
(dp1344
g137
g138
sg139
I01
sg140
S'1344.11'
p1345
sssg142
S'(M=2048, N=2048, K=2048) MKL DGEMM with 64 (autodetected) threads and 3 iterations'
p1346
sbag1
(g110
g3
NtRp1347
(dp1348
g113
g1
(g114
g3
NtRp1349
(dp1350
g117
(lp1351
g1282
ag97
ag1283
ag1284
ag1285
ag1286
asg121
(dp1352
g1285
g1288
sg1282
S'3'
sg97
g1289
sg1283
S'0'
sg1284
g1290
sg1286
g1291
ssg126
(dp1353
g1282
S'3'
sg97
S'2560'
p1354
sg1283
S'0'
sg1284
g1290
sg1285
S'2560'
p1355
sg1286
S'2560'
p1356
ssg131
(lp1357
sbsg133
(dp1358
g1298
(dp1359
g137
g138
sg139
I01
sg140
S'1536.57'
p1360
sssg142
S'(M=2560, N=2560, K=2560) MKL DGEMM with 64 (autodetected) threads and 3 iterations'
p1361
sbag1
(g110
g3
NtRp1362
(dp1363
g113
g1
(g114
g3
NtRp1364
(dp1365
g117
(lp1366
g1282
ag97
ag1283
ag1284
ag1285
ag1286
asg121
(dp1367
g1285
g1288
sg1282
S'3'
sg97
g1289
sg1283
S'0'
sg1284
g1290
sg1286
g1291
ssg126
(dp1368
g1282
S'3'
sg97
S'3072'
p1369
sg1283
S'0'
sg1284
g1290
sg1285
S'3072'
p1370
sg1286
S'3072'
p1371
ssg131
(lp1372
sbsg133
(dp1373
g1298
(dp1374
g137
g138
sg139
I01
sg140
S'1593.57'
p1375
sssg142
S'(M=3072, N=3072, K=3072) MKL DGEMM with 64 (autodetected) threads and 3 iterations'
p1376
sbag1
(g110
g3
NtRp1377
(dp1378
g113
g1
(g114
g3
NtRp1379
(dp1380
g117
(lp1381
g1282
ag97
ag1283
ag1284
ag1285
ag1286
asg121
(dp1382
g1285
g1288
sg1282
S'3'
sg97
g1289
sg1283
S'0'
sg1284
g1290
sg1286
g1291
ssg126
(dp1383
g1282
S'3'
sg97
S'3584'
p1384
sg1283
S'0'
sg1284
g1290
sg1285
S'3584'
p1385
sg1286
S'3584'
p1386
ssg131
(lp1387
sbsg133
(dp1388
g1298
(dp1389
g137
g138
sg139
I01
sg140
S'1625.1'
p1390
sssg142
S'(M=3584, N=3584, K=3584) MKL DGEMM with 64 (autodetected) threads and 3 iterations'
p1391
sbag1
(g110
g3
NtRp1392
(dp1393
g113
g1
(g114
g3
NtRp1394
(dp1395
g117
(lp1396
g1282
ag97
ag1283
ag1284
ag1285
ag1286
asg121
(dp1397
g1285
g1288
sg1282
S'3'
sg97
g1289
sg1283
S'0'
sg1284
g1290
sg1286
g1291
ssg126
(dp1398
g1282
S'3'
sg97
S'4096'
p1399
sg1283
S'0'
sg1284
g1290
sg1285
S'4096'
p1400
sg1286
S'4096'
p1401
ssg131
(lp1402
sbsg133
(dp1403
g1298
(dp1404
g137
g138
sg139
I01
sg140
S'1721.61'
p1405
sssg142
S'(M=4096, N=4096, K=4096) MKL DGEMM with 64 (autodetected) threads and 3 iterations'
p1406
sbag1
(g110
g3
NtRp1407
(dp1408
g113
g1
(g114
g3
NtRp1409
(dp1410
g117
(lp1411
g1282
ag97
ag1283
ag1284
ag1285
ag1286
asg121
(dp1412
g1285
g1288
sg1282
S'3'
sg97
g1289
sg1283
S'0'
sg1284
g1290
sg1286
g1291
ssg126
(dp1413
g1282
S'3'
sg97
S'4608'
p1414
sg1283
S'0'
sg1284
g1290
sg1285
S'4608'
p1415
sg1286
S'4608'
p1416
ssg131
(lp1417
sbsg133
(dp1418
g1298
(dp1419
g137
g138
sg139
I01
sg140
S'1778.26'
p1420
sssg142
S'(M=4608, N=4608, K=4608) MKL DGEMM with 64 (autodetected) threads and 3 iterations'
p1421
sbag1
(g110
g3
NtRp1422
(dp1423
g113
g1
(g114
g3
NtRp1424
(dp1425
g117
(lp1426
g1282
ag97
ag1283
ag1284
ag1285
ag1286
asg121
(dp1427
g1285
g1288
sg1282
S'3'
sg97
g1289
sg1283
S'0'
sg1284
g1290
sg1286
g1291
ssg126
(dp1428
g1282
S'3'
sg97
S'5120'
p1429
sg1283
S'0'
sg1284
g1290
sg1285
S'5120'
p1430
sg1286
S'5120'
p1431
ssg131
(lp1432
sbsg133
(dp1433
g1298
(dp1434
g137
g138
sg139
I01
sg140
S'1809.1'
p1435
sssg142
S'(M=5120, N=5120, K=5120) MKL DGEMM with 64 (autodetected) threads and 3 iterations'
p1436
sbag1
(g110
g3
NtRp1437
(dp1438
g113
g1
(g114
g3
NtRp1439
(dp1440
g117
(lp1441
g1282
ag97
ag1283
ag1284
ag1285
ag1286
asg121
(dp1442
g1285
g1288
sg1282
S'3'
sg97
g1289
sg1283
S'0'
sg1284
g1290
sg1286
g1291
ssg126
(dp1443
g1282
S'3'
sg97
S'5632'
p1444
sg1283
S'0'
sg1284
g1290
sg1285
S'5632'
p1445
sg1286
S'5632'
p1446
ssg131
(lp1447
sbsg133
(dp1448
g1298
(dp1449
g137
g138
sg139
I01
sg140
S'1814.98'
p1450
sssg142
S'(M=5632, N=5632, K=5632) MKL DGEMM with 64 (autodetected) threads and 3 iterations'
p1451
sbag1
(g110
g3
NtRp1452
(dp1453
g113
g1
(g114
g3
NtRp1454
(dp1455
g117
(lp1456
g1282
ag97
ag1283
ag1284
ag1285
ag1286
asg121
(dp1457
g1285
g1288
sg1282
S'3'
sg97
g1289
sg1283
S'0'
sg1284
g1290
sg1286
g1291
ssg126
(dp1458
g1282
S'3'
sg97
S'6144'
p1459
sg1283
S'0'
sg1284
g1290
sg1285
S'6144'
p1460
sg1286
S'6144'
p1461
ssg131
(lp1462
sbsg133
(dp1463
g1298
(dp1464
g137
g138
sg139
I01
sg140
S'1855.97'
p1465
sssg142
S'(M=6144, N=6144, K=6144) MKL DGEMM with 64 (autodetected) threads and 3 iterations'
p1466
sbag1
(g110
g3
NtRp1467
(dp1468
g113
g1
(g114
g3
NtRp1469
(dp1470
g117
(lp1471
g1282
ag97
ag1283
ag1284
ag1285
ag1286
asg121
(dp1472
g1285
g1288
sg1282
S'3'
sg97
g1289
sg1283
S'0'
sg1284
g1290
sg1286
g1291
ssg126
(dp1473
g1282
S'3'
sg97
S'6656'
p1474
sg1283
S'0'
sg1284
g1290
sg1285
S'6656'
p1475
sg1286
S'6656'
p1476
ssg131
(lp1477
sbsg133
(dp1478
g1298
(dp1479
g137
g138
sg139
I01
sg140
S'1853.09'
p1480
sssg142
S'(M=6656, N=6656, K=6656) MKL DGEMM with 64 (autodetected) threads and 3 iterations'
p1481
sbag1
(g110
g3
NtRp1482
(dp1483
g113
g1
(g114
g3
NtRp1484
(dp1485
g117
(lp1486
g1282
ag97
ag1283
ag1284
ag1285
ag1286
asg121
(dp1487
g1285
g1288
sg1282
S'3'
sg97
g1289
sg1283
S'0'
sg1284
g1290
sg1286
g1291
ssg126
(dp1488
g1282
S'3'
sg97
S'7168'
p1489
sg1283
S'0'
sg1284
g1290
sg1285
S'7168'
p1490
sg1286
S'7168'
p1491
ssg131
(lp1492
sbsg133
(dp1493
g1298
(dp1494
g137
g138
sg139
I01
sg140
S'1847.42'
p1495
sssg142
S'(M=7168, N=7168, K=7168) MKL DGEMM with 64 (autodetected) threads and 3 iterations'
p1496
sbag1
(g110
g3
NtRp1497
(dp1498
g113
g1
(g114
g3
NtRp1499
(dp1500
g117
(lp1501
g1282
ag97
ag1283
ag1284
ag1285
ag1286
asg121
(dp1502
g1285
g1288
sg1282
S'3'
sg97
g1289
sg1283
S'0'
sg1284
g1290
sg1286
g1291
ssg126
(dp1503
g1282
S'3'
sg97
S'7680'
p1504
sg1283
S'0'
sg1284
g1290
sg1285
S'7680'
p1505
sg1286
S'7680'
p1506
ssg131
(lp1507
sbsg133
(dp1508
g1298
(dp1509
g137
g138
sg139
I01
sg140
S'1848.21'
p1510
sssg142
S'(M=7680, N=7680, K=7680) MKL DGEMM with 64 (autodetected) threads and 3 iterations'
p1511
sbag1
(g110
g3
NtRp1512
(dp1513
g113
g1
(g114
g3
NtRp1514
(dp1515
g117
(lp1516
g1282
ag97
ag1283
ag1284
ag1285
ag1286
asg121
(dp1517
g1285
g1288
sg1282
S'3'
sg97
g1289
sg1283
S'0'
sg1284
g1290
sg1286
g1291
ssg126
(dp1518
g1282
S'3'
sg97
S'8192'
p1519
sg1283
S'0'
sg1284
g1290
sg1285
S'8192'
p1520
sg1286
S'8192'
p1521
ssg131
(lp1522
sbsg133
(dp1523
g1298
(dp1524
g137
g138
sg139
I01
sg140
S'1818.9'
p1525
sssg142
S'(M=8192, N=8192, K=8192) MKL DGEMM with 64 (autodetected) threads and 3 iterations'
p1526
sbag1
(g110
g3
NtRp1527
(dp1528
g113
g1
(g114
g3
NtRp1529
(dp1530
g117
(lp1531
g1282
ag97
ag1283
ag1284
ag1285
ag1286
asg121
(dp1532
g1285
g1288
sg1282
S'3'
sg97
g1289
sg1283
S'0'
sg1284
g1290
sg1286
g1291
ssg126
(dp1533
g1282
S'3'
sg97
S'8704'
p1534
sg1283
S'0'
sg1284
g1290
sg1285
S'8704'
p1535
sg1286
S'8704'
p1536
ssg131
(lp1537
sbsg133
(dp1538
g1298
(dp1539
g137
g138
sg139
I01
sg140
S'1844.21'
p1540
sssg142
S'(M=8704, N=8704, K=8704) MKL DGEMM with 64 (autodetected) threads and 3 iterations'
p1541
sbag1
(g110
g3
NtRp1542
(dp1543
g113
g1
(g114
g3
NtRp1544
(dp1545
g117
(lp1546
g1282
ag97
ag1283
ag1284
ag1285
ag1286
asg121
(dp1547
g1285
g1288
sg1282
S'3'
sg97
g1289
sg1283
S'0'
sg1284
g1290
sg1286
g1291
ssg126
(dp1548
g1282
S'3'
sg97
S'9216'
p1549
sg1283
S'0'
sg1284
g1290
sg1285
S'9216'
p1550
sg1286
S'9216'
p1551
ssg131
(lp1552
sbsg133
(dp1553
g1298
(dp1554
g137
g138
sg139
I01
sg140
S'1840.62'
p1555
sssg142
S'(M=9216, N=9216, K=9216) MKL DGEMM with 64 (autodetected) threads and 3 iterations'
p1556
sbag1
(g110
g3
NtRp1557
(dp1558
g113
g1
(g114
g3
NtRp1559
(dp1560
g117
(lp1561
g1282
ag97
ag1283
ag1284
ag1285
ag1286
asg121
(dp1562
g1285
g1288
sg1282
S'3'
sg97
g1289
sg1283
S'0'
sg1284
g1290
sg1286
g1291
ssg126
(dp1563
g1282
S'3'
sg97
S'9728'
p1564
sg1283
S'0'
sg1284
g1290
sg1285
S'9728'
p1565
sg1286
S'9728'
p1566
ssg131
(lp1567
sbsg133
(dp1568
g1298
(dp1569
g137
g138
sg139
I01
sg140
S'1855.42'
p1570
sssg142
S'(M=9728, N=9728, K=9728) MKL DGEMM with 64 (autodetected) threads and 3 iterations'
p1571
sbag1
(g110
g3
NtRp1572
(dp1573
g113
g1
(g114
g3
NtRp1574
(dp1575
g117
(lp1576
g1282
ag97
ag1283
ag1284
ag1285
ag1286
asg121
(dp1577
g1285
g1288
sg1282
S'3'
sg97
g1289
sg1283
S'0'
sg1284
g1290
sg1286
g1291
ssg126
(dp1578
g1282
S'3'
sg97
S'10240'
p1579
sg1283
S'0'
sg1284
g1290
sg1285
S'10240'
p1580
sg1286
S'10240'
p1581
ssg131
(lp1582
sbsg133
(dp1583
g1298
(dp1584
g137
g138
sg139
I01
sg140
S'1850.33'
p1585
sssg142
S'(M=10240, N=10240, K=10240) MKL DGEMM with 64 (autodetected) threads and 3 iterations'
p1586
sbassg98
(dp1587
S'local__mcdram_7230_SuSE-12_micperf-1.6.0_local_scaling'
p1588
(lp1589
g1
(g110
g3
NtRp1590
(dp1591
g113
g1
(g114
g3
NtRp1592
(dp1593
g117
(lp1594
g99
aS'time'
p1595
ag94
asg121
(dp1596
g94
S'32'
p1597
sg1595
S'60'
p1598
sg99
S'128'
p1599
ssg126
(dp1600
g94
S'32'
p1601
sg1595
S'60'
p1602
sg99
S'32'
p1603
ssg131
(lp1604
sbsg133
(dp1605
S'Computation.Avg'
p1606
(dp1607
g137
g138
sg139
I01
sg140
S'13.2903'
p1608
sssg142
S'hpcg Local Dimensions nx=32, ny=32, nz=32, MPI ranks 4, threads per rank 32'
p1609
sbag1
(g110
g3
NtRp1610
(dp1611
g113
g1
(g114
g3
NtRp1612
(dp1613
g117
(lp1614
g99
ag1595
ag94
asg121
(dp1615
g94
g1597
sg1595
g1598
sg99
g1599
ssg126
(dp1616
g94
S'32'
p1617
sg1595
S'60'
p1618
sg99
S'64'
p1619
ssg131
(lp1620
sbsg133
(dp1621
g1606
(dp1622
g137
g138
sg139
I01
sg140
S'41.3719'
p1623
sssg142
S'hpcg Local Dimensions nx=64, ny=64, nz=64, MPI ranks 4, threads per rank 32'
p1624
sbag1
(g110
g3
NtRp1625
(dp1626
g113
g1
(g114
g3
NtRp1627
(dp1628
g117
(lp1629
g99
ag1595
ag94
asg121
(dp1630
g94
g1597
sg1595
g1598
sg99
g1599
ssg126
(dp1631
g94
S'32'
p1632
sg1595
S'60'
p1633
sg99
S'96'
p1634
ssg131
(lp1635
sbsg133
(dp1636
g1606
(dp1637
g137
g138
sg139
I01
sg140
S'52.0133'
p1638
sssg142
S'hpcg Local Dimensions nx=96, ny=96, nz=96, MPI ranks 4, threads per rank 32'
p1639
sbag1
(g110
g3
NtRp1640
(dp1641
g113
g1
(g114
g3
NtRp1642
(dp1643
g117
(lp1644
g99
ag1595
ag94
asg121
(dp1645
g94
g1597
sg1595
g1598
sg99
g1599
ssg126
(dp1646
g94
S'32'
p1647
sg1595
S'60'
p1648
sg99
S'128'
p1649
ssg131
(lp1650
sbsg133
(dp1651
g1606
(dp1652
g137
g138
sg139
I01
sg140
S'58.6414'
p1653
sssg142
S'hpcg Local Dimensions nx=128, ny=128, nz=128, MPI ranks 4, threads per rank 32'
p1654
sbassg100
(dp1655
S'local__mcdram_7230_SuSE-12_micperf-1.6.0_local_scaling'
p1656
(lp1657
g1
(g110
g3
NtRp1658
(dp1659
g113
g1
(g114
g3
NtRp1660
(dp1661
g117
(lp1662
g99
aS'block_size'
p1663
aS'hpl_numthreads'
p1664
asg121
(dp1665
g1664
S'64'
p1666
sg1663
S'336'
p1667
sg99
S'100000'
p1668
ssg126
(dp1669
g1664
S'64'
p1670
sg1663
S'336'
p1671
sg99
S'10000'
p1672
ssg131
(lp1673
g1664
asbsg133
(dp1674
S'Computation.Avg'
p1675
(dp1676
g137
g138
sg139
I01
sg140
F777.08399999999995
sssg142
S'HPLinpack problem size 10000 block size 336'
p1677
sbag1
(g110
g3
NtRp1678
(dp1679
g113
g1
(g114
g3
NtRp1680
(dp1681
g117
(lp1682
g99
ag1663
ag1664
asg121
(dp1683
g1664
g1666
sg1663
g1667
sg99
g1668
ssg126
(dp1684
g1664
S'64'
p1685
sg1663
S'336'
p1686
sg99
S'20000'
p1687
ssg131
(lp1688
g1664
asbsg133
(dp1689
g1675
(dp1690
g137
g138
sg139
I01
sg140
F1409.8900000000001
sssg142
S'HPLinpack problem size 20000 block size 336'
p1691
sbag1
(g110
g3
NtRp1692
(dp1693
g113
g1
(g114
g3
NtRp1694
(dp1695
g117
(lp1696
g99
ag1663
ag1664
asg121
(dp1697
g1664
g1666
sg1663
g1667
sg99
g1668
ssg126
(dp1698
g1664
S'64'
p1699
sg1663
S'336'
p1700
sg99
S'30000'
p1701
ssg131
(lp1702
g1664
asbsg133
(dp1703
g1675
(dp1704
g137
g138
sg139
I01
sg140
F1551.24
sssg142
S'HPLinpack problem size 30000 block size 336'
p1705
sbag1
(g110
g3
NtRp1706
(dp1707
g113
g1
(g114
g3
NtRp1708
(dp1709
g117
(lp1710
g99
ag1663
ag1664
asg121
(dp1711
g1664
g1666
sg1663
g1667
sg99
g1668
ssg126
(dp1712
g1664
S'64'
p1713
sg1663
S'336'
p1714
sg99
S'40000'
p1715
ssg131
(lp1716
g1664
asbsg133
(dp1717
g1675
(dp1718
g137
g138
sg139
I01
sg140
F1617.26
sssg142
S'HPLinpack problem size 40000 block size 336'
p1719
sbag1
(g110
g3
NtRp1720
(dp1721
g113
g1
(g114
g3
NtRp1722
(dp1723
g117
(lp1724
g99
ag1663
ag1664
asg121
(dp1725
g1664
g1666
sg1663
g1667
sg99
g1668
ssg126
(dp1726
g1664
S'64'
p1727
sg1663
S'336'
p1728
sg99
S'50000'
p1729
ssg131
(lp1730
g1664
asbsg133
(dp1731
g1675
(dp1732
g137
g138
sg139
I01
sg140
F1628.6900000000001
sssg142
S'HPLinpack problem size 50000 block size 336'
p1733
sbag1
(g110
g3
NtRp1734
(dp1735
g113
g1
(g114
g3
NtRp1736
(dp1737
g117
(lp1738
g99
ag1663
ag1664
asg121
(dp1739
g1664
g1666
sg1663
g1667
sg99
g1668
ssg126
(dp1740
g1664
S'64'
p1741
sg1663
S'336'
p1742
sg99
S'60000'
p1743
ssg131
(lp1744
g1664
asbsg133
(dp1745
g1675
(dp1746
g137
g138
sg139
I01
sg140
F1650.3099999999999
sssg142
S'HPLinpack problem size 60000 block size 336'
p1747
sbag1
(g110
g3
NtRp1748
(dp1749
g113
g1
(g114
g3
NtRp1750
(dp1751
g117
(lp1752
g99
ag1663
ag1664
asg121
(dp1753
g1664
g1666
sg1663
g1667
sg99
g1668
ssg126
(dp1754
g1664
S'64'
p1755
sg1663
S'336'
p1756
sg99
S'70000'
p1757
ssg131
(lp1758
g1664
asbsg133
(dp1759
g1675
(dp1760
g137
g138
sg139
I01
sg140
F1669.72
sssg142
S'HPLinpack problem size 70000 block size 336'
p1761
sbag1
(g110
g3
NtRp1762
(dp1763
g113
g1
(g114
g3
NtRp1764
(dp1765
g117
(lp1766
g99
ag1663
ag1664
asg121
(dp1767
g1664
g1666
sg1663
g1667
sg99
g1668
ssg126
(dp1768
g1664
S'64'
p1769
sg1663
S'336'
p1770
sg99
S'80000'
p1771
ssg131
(lp1772
g1664
asbsg133
(dp1773
g1675
(dp1774
g137
g138
sg139
I01
sg140
F1681.7
sssg142
S'HPLinpack problem size 80000 block size 336'
p1775
sbag1
(g110
g3
NtRp1776
(dp1777
g113
g1
(g114
g3
NtRp1778
(dp1779
g117
(lp1780
g99
ag1663
ag1664
asg121
(dp1781
g1664
g1666
sg1663
g1667
sg99
g1668
ssg126
(dp1782
g1664
S'64'
p1783
sg1663
S'336'
p1784
sg99
S'90000'
p1785
ssg131
(lp1786
g1664
asbsg133
(dp1787
g1675
(dp1788
g137
g138
sg139
I01
sg140
F1663.29
sssg142
S'HPLinpack problem size 90000 block size 336'
p1789
sbag1
(g110
g3
NtRp1790
(dp1791
g113
g1
(g114
g3
NtRp1792
(dp1793
g117
(lp1794
g99
ag1663
ag1664
asg121
(dp1795
g1664
g1666
sg1663
g1667
sg99
g1668
ssg126
(dp1796
g1664
S'64'
p1797
sg1663
S'336'
p1798
sg99
S'100000'
p1799
ssg131
(lp1800
g1664
asbsg133
(dp1801
g1675
(dp1802
g137
g138
sg139
I01
sg140
F1698.26
sssg142
S'HPLinpack problem size 100000 block size 336'
p1803
sbassg101
(dp1804
S'local__mcdram_7230_SuSE-12_micperf-1.6.0_local_scaling'
p1805
(lp1806
g1
(g110
g3
NtRp1807
(dp1808
g113
g1
(g114
g3
NtRp1809
(dp1810
g117
(lp1811
g1282
ag97
ag1283
ag1284
ag1285
ag1286
asg121
(dp1812
g1285
S'-1'
p1813
sg1282
S'3'
sg97
g1813
sg1283
S'228'
p1814
sg1284
g1290
sg1286
g1813
ssg126
(dp1815
g1282
S'3'
sg97
S'512'
p1816
sg1283
S'0'
sg1284
g1290
sg1285
S'512'
p1817
sg1286
S'512'
p1818
ssg131
(lp1819
sbsg133
(dp1820
g1298
(dp1821
g137
g138
sg139
I01
sg140
S'2169.48'
p1822
sssg142
S'(M=512, N=512, K=512) MKL SGEMM with 64 (autodetected) threads and 3 iterations'
p1823
sbag1
(g110
g3
NtRp1824
(dp1825
g113
g1
(g114
g3
NtRp1826
(dp1827
g117
(lp1828
g1282
ag97
ag1283
ag1284
ag1285
ag1286
asg121
(dp1829
g1285
g1813
sg1282
S'3'
sg97
g1813
sg1283
g1814
sg1284
g1290
sg1286
g1813
ssg126
(dp1830
g1282
S'3'
sg97
S'1024'
p1831
sg1283
S'0'
sg1284
g1290
sg1285
S'1024'
p1832
sg1286
S'1024'
p1833
ssg131
(lp1834
sbsg133
(dp1835
g1298
(dp1836
g137
g138
sg139
I01
sg140
S'1771.5'
p1837
sssg142
S'(M=1024, N=1024, K=1024) MKL SGEMM with 64 (autodetected) threads and 3 iterations'
p1838
sbag1
(g110
g3
NtRp1839
(dp1840
g113
g1
(g114
g3
NtRp1841
(dp1842
g117
(lp1843
g1282
ag97
ag1283
ag1284
ag1285
ag1286
asg121
(dp1844
g1285
g1813
sg1282
S'3'
sg97
g1813
sg1283
g1814
sg1284
g1290
sg1286
g1813
ssg126
(dp1845
g1282
S'3'
sg97
S'1536'
p1846
sg1283
S'0'
sg1284
g1290
sg1285
S'1536'
p1847
sg1286
S'1536'
p1848
ssg131
(lp1849
sbsg133
(dp1850
g1298
(dp1851
g137
g138
sg139
I01
sg140
S'2247.54'
p1852
sssg142
S'(M=1536, N=1536, K=1536) MKL SGEMM with 64 (autodetected) threads and 3 iterations'
p1853
sbag1
(g110
g3
NtRp1854
(dp1855
g113
g1
(g114
g3
NtRp1856
(dp1857
g117
(lp1858
g1282
ag97
ag1283
ag1284
ag1285
ag1286
asg121
(dp1859
g1285
g1813
sg1282
S'3'
sg97
g1813
sg1283
g1814
sg1284
g1290
sg1286
g1813
ssg126
(dp1860
g1282
S'3'
sg97
S'2048'
p1861
sg1283
S'0'
sg1284
g1290
sg1285
S'2048'
p1862
sg1286
S'2048'
p1863
ssg131
(lp1864
sbsg133
(dp1865
g1298
(dp1866
g137
g138
sg139
I01
sg140
S'2424.27'
p1867
sssg142
S'(M=2048, N=2048, K=2048) MKL SGEMM with 64 (autodetected) threads and 3 iterations'
p1868
sbag1
(g110
g3
NtRp1869
(dp1870
g113
g1
(g114
g3
NtRp1871
(dp1872
g117
(lp1873
g1282
ag97
ag1283
ag1284
ag1285
ag1286
asg121
(dp1874
g1285
g1813
sg1282
S'3'
sg97
g1813
sg1283
g1814
sg1284
g1290
sg1286
g1813
ssg126
(dp1875
g1282
S'3'
sg97
S'2560'
p1876
sg1283
S'0'
sg1284
g1290
sg1285
S'2560'
p1877
sg1286
S'2560'
p1878
ssg131
(lp1879
sbsg133
(dp1880
g1298
(dp1881
g137
g138
sg139
I01
sg140
S'2880.59'
p1882
sssg142
S'(M=2560, N=2560, K=2560) MKL SGEMM with 64 (autodetected) threads and 3 iterations'
p1883
sbag1
(g110
g3
NtRp1884
(dp1885
g113
g1
(g114
g3
NtRp1886
(dp1887
g117
(lp1888
g1282
ag97
ag1283
ag1284
ag1285
ag1286
asg121
(dp1889
g1285
g1813
sg1282
S'3'
sg97
g1813
sg1283
g1814
sg1284
g1290
sg1286
g1813
ssg126
(dp1890
g1282
S'3'
sg97
S'3072'
p1891
sg1283
S'0'
sg1284
g1290
sg1285
S'3072'
p1892
sg1286
S'3072'
p1893
ssg131
(lp1894
sbsg133
(dp1895
g1298
(dp1896
g137
g138
sg139
I01
sg140
S'3118.1'
p1897
sssg142
S'(M=3072, N=3072, K=3072) MKL SGEMM with 64 (autodetected) threads and 3 iterations'
p1898
sbag1
(g110
g3
NtRp1899
(dp1900
g113
g1
(g114
g3
NtRp1901
(dp1902
g117
(lp1903
g1282
ag97
ag1283
ag1284
ag1285
ag1286
asg121
(dp1904
g1285
g1813
sg1282
S'3'
sg97
g1813
sg1283
g1814
sg1284
g1290
sg1286
g1813
ssg126
(dp1905
g1282
S'3'
sg97
S'3584'
p1906
sg1283
S'0'
sg1284
g1290
sg1285
S'3584'
p1907
sg1286
S'3584'
p1908
ssg131
(lp1909
sbsg133
(dp1910
g1298
(dp1911
g137
g138
sg139
I01
sg140
S'3289.03'
p1912
sssg142
S'(M=3584, N=3584, K=3584) MKL SGEMM with 64 (autodetected) threads and 3 iterations'
p1913
sbag1
(g110
g3
NtRp1914
(dp1915
g113
g1
(g114
g3
NtRp1916
(dp1917
g117
(lp1918
g1282
ag97
ag1283
ag1284
ag1285
ag1286
asg121
(dp1919
g1285
g1813
sg1282
S'3'
sg97
g1813
sg1283
g1814
sg1284
g1290
sg1286
g1813
ssg126
(dp1920
g1282
S'3'
sg97
S'4096'
p1921
sg1283
S'0'
sg1284
g1290
sg1285
S'4096'
p1922
sg1286
S'4096'
p1923
ssg131
(lp1924
sbsg133
(dp1925
g1298
(dp1926
g137
g138
sg139
I01
sg140
S'3497.47'
p1927
sssg142
S'(M=4096, N=4096, K=4096) MKL SGEMM with 64 (autodetected) threads and 3 iterations'
p1928
sbag1
(g110
g3
NtRp1929
(dp1930
g113
g1
(g114
g3
NtRp1931
(dp1932
g117
(lp1933
g1282
ag97
ag1283
ag1284
ag1285
ag1286
asg121
(dp1934
g1285
g1813
sg1282
S'3'
sg97
g1813
sg1283
g1814
sg1284
g1290
sg1286
g1813
ssg126
(dp1935
g1282
S'3'
sg97
S'4608'
p1936
sg1283
S'0'
sg1284
g1290
sg1285
S'4608'
p1937
sg1286
S'4608'
p1938
ssg131
(lp1939
sbsg133
(dp1940
g1298
(dp1941
g137
g138
sg139
I01
sg140
S'3631.26'
p1942
sssg142
S'(M=4608, N=4608, K=4608) MKL SGEMM with 64 (autodetected) threads and 3 iterations'
p1943
sbag1
(g110
g3
NtRp1944
(dp1945
g113
g1
(g114
g3
NtRp1946
(dp1947
g117
(lp1948
g1282
ag97
ag1283
ag1284
ag1285
ag1286
asg121
(dp1949
g1285
g1813
sg1282
S'3'
sg97
g1813
sg1283
g1814
sg1284
g1290
sg1286
g1813
ssg126
(dp1950
g1282
S'3'
sg97
S'5120'
p1951
sg1283
S'0'
sg1284
g1290
sg1285
S'5120'
p1952
sg1286
S'5120'
p1953
ssg131
(lp1954
sbsg133
(dp1955
g1298
(dp1956
g137
g138
sg139
I01
sg140
S'3703.3'
p1957
sssg142
S'(M=5120, N=5120, K=5120) MKL SGEMM with 64 (autodetected) threads and 3 iterations'
p1958
sbag1
(g110
g3
NtRp1959
(dp1960
g113
g1
(g114
g3
NtRp1961
(dp1962
g117
(lp1963
g1282
ag97
ag1283
ag1284
ag1285
ag1286
asg121
(dp1964
g1285
g1813
sg1282
S'3'
sg97
g1813
sg1283
g1814
sg1284
g1290
sg1286
g1813
ssg126
(dp1965
g1282
S'3'
sg97
S'5632'
p1966
sg1283
S'0'
sg1284
g1290
sg1285
S'5632'
p1967
sg1286
S'5632'
p1968
ssg131
(lp1969
sbsg133
(dp1970
g1298
(dp1971
g137
g138
sg139
I01
sg140
S'3712.34'
p1972
sssg142
S'(M=5632, N=5632, K=5632) MKL SGEMM with 64 (autodetected) threads and 3 iterations'
p1973
sbag1
(g110
g3
NtRp1974
(dp1975
g113
g1
(g114
g3
NtRp1976
(dp1977
g117
(lp1978
g1282
ag97
ag1283
ag1284
ag1285
ag1286
asg121
(dp1979
g1285
g1813
sg1282
S'3'
sg97
g1813
sg1283
g1814
sg1284
g1290
sg1286
g1813
ssg126
(dp1980
g1282
S'3'
sg97
S'6144'
p1981
sg1283
S'0'
sg1284
g1290
sg1285
S'6144'
p1982
sg1286
S'6144'
p1983
ssg131
(lp1984
sbsg133
(dp1985
g1298
(dp1986
g137
g138
sg139
I01
sg140
S'3698.5'
p1987
sssg142
S'(M=6144, N=6144, K=6144) MKL SGEMM with 64 (autodetected) threads and 3 iterations'
p1988
sbag1
(g110
g3
NtRp1989
(dp1990
g113
g1
(g114
g3
NtRp1991
(dp1992
g117
(lp1993
g1282
ag97
ag1283
ag1284
ag1285
ag1286
asg121
(dp1994
g1285
g1813
sg1282
S'3'
sg97
g1813
sg1283
g1814
sg1284
g1290
sg1286
g1813
ssg126
(dp1995
g1282
S'3'
sg97
S'6656'
p1996
sg1283
S'0'
sg1284
g1290
sg1285
S'6656'
p1997
sg1286
S'6656'
p1998
ssg131
(lp1999
sbsg133
(dp2000
g1298
(dp2001
g137
g138
sg139
I01
sg140
S'3739.61'
p2002
sssg142
S'(M=6656, N=6656, K=6656) MKL SGEMM with 64 (autodetected) threads and 3 iterations'
p2003
sbag1
(g110
g3
NtRp2004
(dp2005
g113
g1
(g114
g3
NtRp2006
(dp2007
g117
(lp2008
g1282
ag97
ag1283
ag1284
ag1285
ag1286
asg121
(dp2009
g1285
g1813
sg1282
S'3'
sg97
g1813
sg1283
g1814
sg1284
g1290
sg1286
g1813
ssg126
(dp2010
g1282
S'3'
sg97
S'7168'
p2011
sg1283
S'0'
sg1284
g1290
sg1285
S'7168'
p2012
sg1286
S'7168'
p2013
ssg131
(lp2014
sbsg133
(dp2015
g1298
(dp2016
g137
g138
sg139
I01
sg140
S'3836.95'
p2017
sssg142
S'(M=7168, N=7168, K=7168) MKL SGEMM with 64 (autodetected) threads and 3 iterations'
p2018
sbag1
(g110
g3
NtRp2019
(dp2020
g113
g1
(g114
g3
NtRp2021
(dp2022
g117
(lp2023
g1282
ag97
ag1283
ag1284
ag1285
ag1286
asg121
(dp2024
g1285
g1813
sg1282
S'3'
sg97
g1813
sg1283
g1814
sg1284
g1290
sg1286
g1813
ssg126
(dp2025
g1282
S'3'
sg97
S'7680'
p2026
sg1283
S'0'
sg1284
g1290
sg1285
S'7680'
p2027
sg1286
S'7680'
p2028
ssg131
(lp2029
sbsg133
(dp2030
g1298
(dp2031
g137
g138
sg139
I01
sg140
S'3894.61'
p2032
sssg142
S'(M=7680, N=7680, K=7680) MKL SGEMM with 64 (autodetected) threads and 3 iterations'
p2033
sbag1
(g110
g3
NtRp2034
(dp2035
g113
g1
(g114
g3
NtRp2036
(dp2037
g117
(lp2038
g1282
ag97
ag1283
ag1284
ag1285
ag1286
asg121
(dp2039
g1285
g1813
sg1282
S'3'
sg97
g1813
sg1283
g1814
sg1284
g1290
sg1286
g1813
ssg126
(dp2040
g1282
S'3'
sg97
S'8192'
p2041
sg1283
S'0'
sg1284
g1290
sg1285
S'8192'
p2042
sg1286
S'8192'
p2043
ssg131
(lp2044
sbsg133
(dp2045
g1298
(dp2046
g137
g138
sg139
I01
sg140
S'3868.1'
p2047
sssg142
S'(M=8192, N=8192, K=8192) MKL SGEMM with 64 (autodetected) threads and 3 iterations'
p2048
sbag1
(g110
g3
NtRp2049
(dp2050
g113
g1
(g114
g3
NtRp2051
(dp2052
g117
(lp2053
g1282
ag97
ag1283
ag1284
ag1285
ag1286
asg121
(dp2054
g1285
g1813
sg1282
S'3'
sg97
g1813
sg1283
g1814
sg1284
g1290
sg1286
g1813
ssg126
(dp2055
g1282
S'3'
sg97
S'8704'
p2056
sg1283
S'0'
sg1284
g1290
sg1285
S'8704'
p2057
sg1286
S'8704'
p2058
ssg131
(lp2059
sbsg133
(dp2060
g1298
(dp2061
g137
g138
sg139
I01
sg140
S'3930.3'
p2062
sssg142
S'(M=8704, N=8704, K=8704) MKL SGEMM with 64 (autodetected) threads and 3 iterations'
p2063
sbag1
(g110
g3
NtRp2064
(dp2065
g113
g1
(g114
g3
NtRp2066
(dp2067
g117
(lp2068
g1282
ag97
ag1283
ag1284
ag1285
ag1286
asg121
(dp2069
g1285
g1813
sg1282
S'3'
sg97
g1813
sg1283
g1814
sg1284
g1290
sg1286
g1813
ssg126
(dp2070
g1282
S'3'
sg97
S'9216'
p2071
sg1283
S'0'
sg1284
g1290
sg1285
S'9216'
p2072
sg1286
S'9216'
p2073
ssg131
(lp2074
sbsg133
(dp2075
g1298
(dp2076
g137
g138
sg139
I01
sg140
S'3916.85'
p2077
sssg142
S'(M=9216, N=9216, K=9216) MKL SGEMM with 64 (autodetected) threads and 3 iterations'
p2078
sbag1
(g110
g3
NtRp2079
(dp2080
g113
g1
(g114
g3
NtRp2081
(dp2082
g117
(lp2083
g1282
ag97
ag1283
ag1284
ag1285
ag1286
asg121
(dp2084
g1285
g1813
sg1282
S'3'
sg97
g1813
sg1283
g1814
sg1284
g1290
sg1286
g1813
ssg126
(dp2085
g1282
S'3'
sg97
S'9728'
p2086
sg1283
S'0'
sg1284
g1290
sg1285
S'9728'
p2087
sg1286
S'9728'
p2088
ssg131
(lp2089
sbsg133
(dp2090
g1298
(dp2091
g137
g138
sg139
I01
sg140
S'3884.49'
p2092
sssg142
S'(M=9728, N=9728, K=9728) MKL SGEMM with 64 (autodetected) threads and 3 iterations'
p2093
sbag1
(g110
g3
NtRp2094
(dp2095
g113
g1
(g114
g3
NtRp2096
(dp2097
g117
(lp2098
g1282
ag97
ag1283
ag1284
ag1285
ag1286
asg121
(dp2099
g1285
g1813
sg1282
S'3'
sg97
g1813
sg1283
g1814
sg1284
g1290
sg1286
g1813
ssg126
(dp2100
g1282
S'3'
sg97
S'10240'
p2101
sg1283
S'0'
sg1284
g1290
sg1285
S'10240'
p2102
sg1286
S'10240'
p2103
ssg131
(lp2104
sbsg133
(dp2105
g1298
(dp2106
g137
g138
sg139
I01
sg140
S'3883.85'
p2107
sssg142
S'(M=10240, N=10240, K=10240) MKL SGEMM with 64 (autodetected) threads and 3 iterations'
p2108
sbag1
(g110
g3
NtRp2109
(dp2110
g113
g1
(g114
g3
NtRp2111
(dp2112
g117
(lp2113
g1282
ag97
ag1283
ag1284
ag1285
ag1286
asg121
(dp2114
g1285
g1813
sg1282
S'3'
sg97
g1813
sg1283
g1814
sg1284
g1290
sg1286
g1813
ssg126
(dp2115
g1282
S'3'
sg97
S'10752'
p2116
sg1283
S'0'
sg1284
g1290
sg1285
S'10752'
p2117
sg1286
S'10752'
p2118
ssg131
(lp2119
sbsg133
(dp2120
g1298
(dp2121
g137
g138
sg139
I01
sg140
S'3847.58'
p2122
sssg142
S'(M=10752, N=10752, K=10752) MKL SGEMM with 64 (autodetected) threads and 3 iterations'
p2123
sbag1
(g110
g3
NtRp2124
(dp2125
g113
g1
(g114
g3
NtRp2126
(dp2127
g117
(lp2128
g1282
ag97
ag1283
ag1284
ag1285
ag1286
asg121
(dp2129
g1285
g1813
sg1282
S'3'
sg97
g1813
sg1283
g1814
sg1284
g1290
sg1286
g1813
ssg126
(dp2130
g1282
S'3'
sg97
S'11264'
p2131
sg1283
S'0'
sg1284
g1290
sg1285
S'11264'
p2132
sg1286
S'11264'
p2133
ssg131
(lp2134
sbsg133
(dp2135
g1298
(dp2136
g137
g138
sg139
I01
sg140
S'3902.01'
p2137
sssg142
S'(M=11264, N=11264, K=11264) MKL SGEMM with 64 (autodetected) threads and 3 iterations'
p2138
sbag1
(g110
g3
NtRp2139
(dp2140
g113
g1
(g114
g3
NtRp2141
(dp2142
g117
(lp2143
g1282
ag97
ag1283
ag1284
ag1285
ag1286
asg121
(dp2144
g1285
g1813
sg1282
S'3'
sg97
g1813
sg1283
g1814
sg1284
g1290
sg1286
g1813
ssg126
(dp2145
g1282
S'3'
sg97
S'11776'
p2146
sg1283
S'0'
sg1284
g1290
sg1285
S'11776'
p2147
sg1286
S'11776'
p2148
ssg131
(lp2149
sbsg133
(dp2150
g1298
(dp2151
g137
g138
sg139
I01
sg140
S'3907.32'
p2152
sssg142
S'(M=11776, N=11776, K=11776) MKL SGEMM with 64 (autodetected) threads and 3 iterations'
p2153
sbag1
(g110
g3
NtRp2154
(dp2155
g113
g1
(g114
g3
NtRp2156
(dp2157
g117
(lp2158
g1282
ag97
ag1283
ag1284
ag1285
ag1286
asg121
(dp2159
g1285
g1813
sg1282
S'3'
sg97
g1813
sg1283
g1814
sg1284
g1290
sg1286
g1813
ssg126
(dp2160
g1282
S'3'
sg97
S'12288'
p2161
sg1283
S'0'
sg1284
g1290
sg1285
S'12288'
p2162
sg1286
S'12288'
p2163
ssg131
(lp2164
sbsg133
(dp2165
g1298
(dp2166
g137
g138
sg139
I01
sg140
S'3887.97'
p2167
sssg142
S'(M=12288, N=12288, K=12288) MKL SGEMM with 64 (autodetected) threads and 3 iterations'
p2168
sbag1
(g110
g3
NtRp2169
(dp2170
g113
g1
(g114
g3
NtRp2171
(dp2172
g117
(lp2173
g1282
ag97
ag1283
ag1284
ag1285
ag1286
asg121
(dp2174
g1285
g1813
sg1282
S'3'
sg97
g1813
sg1283
g1814
sg1284
g1290
sg1286
g1813
ssg126
(dp2175
g1282
S'3'
sg97
S'12800'
p2176
sg1283
S'0'
sg1284
g1290
sg1285
S'12800'
p2177
sg1286
S'12800'
p2178
ssg131
(lp2179
sbsg133
(dp2180
g1298
(dp2181
g137
g138
sg139
I01
sg140
S'3893.22'
p2182
sssg142
S'(M=12800, N=12800, K=12800) MKL SGEMM with 64 (autodetected) threads and 3 iterations'
p2183
sbag1
(g110
g3
NtRp2184
(dp2185
g113
g1
(g114
g3
NtRp2186
(dp2187
g117
(lp2188
g1282
ag97
ag1283
ag1284
ag1285
ag1286
asg121
(dp2189
g1285
g1813
sg1282
S'3'
sg97
g1813
sg1283
g1814
sg1284
g1290
sg1286
g1813
ssg126
(dp2190
g1282
S'3'
sg97
S'13312'
p2191
sg1283
S'0'
sg1284
g1290
sg1285
S'13312'
p2192
sg1286
S'13312'
p2193
ssg131
(lp2194
sbsg133
(dp2195
g1298
(dp2196
g137
g138
sg139
I01
sg140
S'3928.03'
p2197
sssg142
S'(M=13312, N=13312, K=13312) MKL SGEMM with 64 (autodetected) threads and 3 iterations'
p2198
sbag1
(g110
g3
NtRp2199
(dp2200
g113
g1
(g114
g3
NtRp2201
(dp2202
g117
(lp2203
g1282
ag97
ag1283
ag1284
ag1285
ag1286
asg121
(dp2204
g1285
g1813
sg1282
S'3'
sg97
g1813
sg1283
g1814
sg1284
g1290
sg1286
g1813
ssg126
(dp2205
g1282
S'3'
sg97
S'13824'
p2206
sg1283
S'0'
sg1284
g1290
sg1285
S'13824'
p2207
sg1286
S'13824'
p2208
ssg131
(lp2209
sbsg133
(dp2210
g1298
(dp2211
g137
g138
sg139
I01
sg140
S'3933.53'
p2212
sssg142
S'(M=13824, N=13824, K=13824) MKL SGEMM with 64 (autodetected) threads and 3 iterations'
p2213
sbag1
(g110
g3
NtRp2214
(dp2215
g113
g1
(g114
g3
NtRp2216
(dp2217
g117
(lp2218
g1282
ag97
ag1283
ag1284
ag1285
ag1286
asg121
(dp2219
g1285
g1813
sg1282
S'3'
sg97
g1813
sg1283
g1814
sg1284
g1290
sg1286
g1813
ssg126
(dp2220
g1282
S'3'
sg97
S'14336'
p2221
sg1283
S'0'
sg1284
g1290
sg1285
S'14336'
p2222
sg1286
S'14336'
p2223
ssg131
(lp2224
sbsg133
(dp2225
g1298
(dp2226
g137
g138
sg139
I01
sg140
S'3932.17'
p2227
sssg142
S'(M=14336, N=14336, K=14336) MKL SGEMM with 64 (autodetected) threads and 3 iterations'
p2228
sbag1
(g110
g3
NtRp2229
(dp2230
g113
g1
(g114
g3
NtRp2231
(dp2232
g117
(lp2233
g1282
ag97
ag1283
ag1284
ag1285
ag1286
asg121
(dp2234
g1285
g1813
sg1282
S'3'
sg97
g1813
sg1283
g1814
sg1284
g1290
sg1286
g1813
ssg126
(dp2235
g1282
S'3'
sg97
S'14848'
p2236
sg1283
S'0'
sg1284
g1290
sg1285
S'14848'
p2237
sg1286
S'14848'
p2238
ssg131
(lp2239
sbsg133
(dp2240
g1298
(dp2241
g137
g138
sg139
I01
sg140
S'3923.78'
p2242
sssg142
S'(M=14848, N=14848, K=14848) MKL SGEMM with 64 (autodetected) threads and 3 iterations'
p2243
sbag1
(g110
g3
NtRp2244
(dp2245
g113
g1
(g114
g3
NtRp2246
(dp2247
g117
(lp2248
g1282
ag97
ag1283
ag1284
ag1285
ag1286
asg121
(dp2249
g1285
g1813
sg1282
S'3'
sg97
g1813
sg1283
g1814
sg1284
g1290
sg1286
g1813
ssg126
(dp2250
g1282
S'3'
sg97
S'15360'
p2251
sg1283
S'0'
sg1284
g1290
sg1285
S'15360'
p2252
sg1286
S'15360'
p2253
ssg131
(lp2254
sbsg133
(dp2255
g1298
(dp2256
g137
g138
sg139
I01
sg140
S'3896.21'
p2257
sssg142
S'(M=15360, N=15360, K=15360) MKL SGEMM with 64 (autodetected) threads and 3 iterations'
p2258
sbag1
(g110
g3
NtRp2259
(dp2260
g113
g1
(g114
g3
NtRp2261
(dp2262
g117
(lp2263
g1282
ag97
ag1283
ag1284
ag1285
ag1286
asg121
(dp2264
g1285
g1813
sg1282
S'3'
sg97
g1813
sg1283
g1814
sg1284
g1290
sg1286
g1813
ssg126
(dp2265
g1282
S'3'
sg97
S'15872'
p2266
sg1283
S'0'
sg1284
g1290
sg1285
S'15872'
p2267
sg1286
S'15872'
p2268
ssg131
(lp2269
sbsg133
(dp2270
g1298
(dp2271
g137
g138
sg139
I01
sg140
S'3925.41'
p2272
sssg142
S'(M=15872, N=15872, K=15872) MKL SGEMM with 64 (autodetected) threads and 3 iterations'
p2273
sbag1
(g110
g3
NtRp2274
(dp2275
g113
g1
(g114
g3
NtRp2276
(dp2277
g117
(lp2278
g1282
ag97
ag1283
ag1284
ag1285
ag1286
asg121
(dp2279
g1285
g1813
sg1282
S'3'
sg97
g1813
sg1283
g1814
sg1284
g1290
sg1286
g1813
ssg126
(dp2280
g1282
S'3'
sg97
S'16384'
p2281
sg1283
S'0'
sg1284
g1290
sg1285
S'16384'
p2282
sg1286
S'16384'
p2283
ssg131
(lp2284
sbsg133
(dp2285
g1298
(dp2286
g137
g138
sg139
I01
sg140
S'3885.26'
p2287
sssg142
S'(M=16384, N=16384, K=16384) MKL SGEMM with 64 (autodetected) threads and 3 iterations'
p2288
sbassg102
(dp2289
S'local__mcdram_7230_SuSE-12_micperf-1.6.0_local_scaling'
p2290
(lp2291
g1
(g110
g3
NtRp2292
(dp2293
g113
g1
(g114
g3
NtRp2294
(dp2295
g117
(lp2296
g103
aS'numjobs'
p2297
asg121
(dp2298
g103
S'16MB'
p2299
sg2297
S'10'
p2300
ssg126
(dp2301
g2297
S'10'
p2302
sg103
S'4MB'
p2303
ssg131
(lp2304
sbsg133
(dp2305
S'Computation.Avg'
p2306
(dp2307
g137
S'kB/s'
p2308
sg139
I01
sg140
I33739
sssg142
Vfio-2.1.13; Test of paralell read from multiple files; total size: 40960 kB
p2309
sbag1
(g110
g3
NtRp2310
(dp2311
g113
g1
(g114
g3
NtRp2312
(dp2313
g117
(lp2314
g103
ag2297
asg121
(dp2315
g103
g2299
sg2297
g2300
ssg126
(dp2316
g2297
S'10'
p2317
sg103
S'8MB'
p2318
ssg131
(lp2319
sbsg133
(dp2320
g2306
(dp2321
g137
g2308
sg139
I01
sg140
I3676
sssg142
Vfio-2.1.13; Test of paralell read from multiple files; total size: 81920 kB
p2322
sbag1
(g110
g3
NtRp2323
(dp2324
g113
g1
(g114
g3
NtRp2325
(dp2326
g117
(lp2327
g103
ag2297
asg121
(dp2328
g103
g2299
sg2297
g2300
ssg126
(dp2329
g2297
S'10'
p2330
sg103
S'16MB'
p2331
ssg131
(lp2332
sbsg133
(dp2333
g2306
(dp2334
g137
g2308
sg139
I01
sg140
I2220
sssg142
Vfio-2.1.13; Test of paralell read from multiple files; total size: 163840 kB
p2335
sbag1
(g110
g3
NtRp2336
(dp2337
g113
g1
(g114
g3
NtRp2338
(dp2339
g117
(lp2340
g103
ag2297
asg121
(dp2341
g103
g2299
sg2297
g2300
ssg126
(dp2342
g2297
S'10'
p2343
sg103
S'32MB'
p2344
ssg131
(lp2345
sbsg133
(dp2346
g2306
(dp2347
g137
g2308
sg139
I01
sg140
I1991
sssg142
Vfio-2.1.13; Test of paralell read from multiple files; total size: 327680 kB
p2348
sbag1
(g110
g3
NtRp2349
(dp2350
g113
g1
(g114
g3
NtRp2351
(dp2352
g117
(lp2353
g103
ag2297
asg121
(dp2354
g103
g2299
sg2297
g2300
ssg126
(dp2355
g2297
S'10'
p2356
sg103
S'64MB'
p2357
ssg131
(lp2358
sbsg133
(dp2359
g2306
(dp2360
g137
g2308
sg139
I01
sg140
I1706
sssg142
Vfio-2.1.13; Test of paralell read from multiple files; total size: 655360 kB
p2361
sbassg104
(dp2362
S'local__mcdram_7230_SuSE-12_micperf-1.6.0_local_scaling'
p2363
(lp2364
g1
(g110
g3
NtRp2365
(dp2366
g113
g1
(g114
g3
NtRp2367
(dp2368
g117
(lp2369
g94
aS'with_padding'
p2370
aS'output'
p2371
aS'groups'
p2372
ag1239
ag1237
ag1238
ag1240
ag1241
ag1242
ag1243
ag1245
ag1244
ag1236
asg121
(dp2373
g1240
S'3'
sg1236
S'100'
p2374
sg1243
S'7'
sg94
S'64'
p2375
sg2370
S'0'
sg1239
S'16'
p2376
sg1245
S'2'
sg1241
S'64'
p2377
sg1242
S'7'
sg1237
S'224'
p2378
sg2372
S'1'
sg1238
S'224'
p2379
sg2371
S'--original-output'
p2380
sg1244
S'3'
ssg126
(dp2381
g1240
S'3'
sg1236
S'100'
p2382
sg94
g2375
sg1243
S'7'
sg2370
S'0'
sg1239
S'16'
p2383
sg1245
S'2'
sg1241
S'64'
p2384
sg1242
S'7'
sg1237
S'224'
p2385
sg2372
S'1'
sg1238
S'224'
p2386
sg2371
g2380
sg1244
S'3'
ssg131
(lp2387
g94
asbsg133
(dp2388
S'Computation.Avg.FWD'
p2389
(dp2390
g137
g138
sg139
I01
sg140
S'2735.70'
p2391
ssS'Computation.Avg.BWD_F'
p2392
(dp2393
g137
g138
sg139
I01
sg140
S'2588.48'
p2394
ssS'Computation.Avg.BWD_D'
p2395
(dp2396
g137
g138
sg139
I01
sg140
S'229.22'
p2397
sssg142
S'W=224, H=224, C=3, N=16, K=64, R=7, S=7'
p2398
sbasssS'tag'
p2399
S'mcdram_7230_SuSE-12_micperf-1.6.0_local_scaling'
p2400
sS'_extended'
p2401
I00
sS'runArgs'
p2402
(dp2403
S'compResult'
p2404
S''
sS'verbLevel'
p2405
S'1'
sS'paramCat'
p2406
S'scaling'
p2407
sS'sudo'
p2408
I00
sS'logFileName'
p2409
NsS'kernelPlugin'
p2410
S''
sg2399
S''
sS'devIdx'
p2411
S'-1'
p2412
sS'kernelNames'
p2413
S'all'
p2414
sS'statistical_model'
p2415
(dp2416
sS'offMethod'
p2417
S'local'
p2418
sS'margin'
p2419
S''
sS'kernelArgs'
p2420
S''
sS'outDir'
p2421
S'.'
ssb.