ccopy_reg
_reconstructor
p1
(cmicp.stats
StatsCollection
p2
c__builtin__
object
p3
NtRp4
(dp5
S'info'
p6
g1
(cmicp.info
Info
p7
g3
NtRp8
(dp9
S'_device'
p10
g1
(cmicp.info
InfoKNXSB
p11
g3
NtRp12
(dp13
S'_micinfoDict'
p14
(dp15
S'selfboot'
p16
(dp17
S'MCDRAM Size'
p18
S'16125 MB'
p19
sS'CPU Model Name'
p20
S'Intel(R) Xeon Phi(TM) CPU 7250 @ 1.40GHz'
p21
sS'CPU Family'
p22
S'6'
sS'OS Version'
p23
S'4.4.59-92.17-default\n'
p24
sS'CPU Stepping'
p25
S'1'
sS'Total No of Active Cores'
p26
S'68'
p27
sS'micperf Version'
p28
S'1.6.0'
p29
sS'CPU Model'
p30
S'87'
p31
sS'CPU Speed'
p32
S'1645.454'
p33
sS'Host OS'
p34
S'gnu/linux\n'
p35
sS'Vendor ID'
p36
S'GenuineIntel'
p37
sS'Host Physical Memory'
p38
S'112747 MB'
p39
sssS'_devIP'
p40
(dp41
sS'_devIdx'
p42
I-1
sS'_nodes_with_cpus'
p43
I1
sS'_is_mcdram_available'
p44
I01
sS'_commandDict'
p45
(dp46
S'dmidecode -t processor'
p47
S'# dmidecode 3.0\nScanning /dev/mem for entry point.\n\n/sys/firmware/dmi/tables/smbios_entry_point: Permission denied\n/dev/mem: Permission denied\n'
p48
sS'uname --processor'
p49
S'x86_64\n\n'
p50
sS'dmidecode -t baseboard'
p51
S'# dmidecode 3.0\nScanning /dev/mem for entry point.\n\n/sys/firmware/dmi/tables/smbios_entry_point: Permission denied\n/dev/mem: Permission denied\n'
p52
sS'env'
p53
S'BERTA_BUILD_COMMENT=XPPSL-CI-1.6.0.3662\nBERTA_OS=Linux-knl-sles12sp2-201707111508\nSHELL=/bin/bash\nBERTA_TMP_DIR=/home/berta/berta/tmp\nUSER=berta\nBERTA_MACHINE_NAME=Perf-KNL-D-B0-34tiles-8MCDRAM-03\nPATH=/opt/mpss_toolchains/composer/composer_xe_2018.0/compilers_and_libraries_2018.0.128/linux/bin/intel64:/opt/mpss_toolchains/composer/composer_xe_2018.0/compilers_and_libraries_2018.0.128/linux/mpi/intel64/bin:/usr/local/sbin:/usr/local/bin:/usr/sbin:/usr/bin:/sbin:/bin:/usr/share/mpss/test/micperf-pt:/usr/share/mpss/test/micperf-pt:/usr/share/mpss/test/micperf-pt\n_=/usr/bin/env\nPWD=/home/berta/berta/var/tasks/1439616\nSHLVL=4\nHOME=/home/berta\nBERTA_VAR_DIR=/home/berta/berta/var\nBERTA_MACHINES_GROUP_NAME=Perf-KNL-D-MIC-68-Cores-7250\nLOGNAME=berta\nPYTHONPATH=/home/berta/berta\nMY_IP_TO_BERTA=10.54.135.222\nLC_CTYPE=en_US.UTF-8\nDISPLAY=:1\nBERTA_PRODUCT=mic_tool\nBERTA_BOOTFILE=agent\nMKLROOT=/opt/mpss_toolchains/composer/composer_xe_2018.0/compilers_and_libraries_2018.0.128/linux/mkl\nMANPATH=/opt/mpss_toolchains/composer/composer_xe_2018.0/man/common:/opt/mpss_toolchains/composer/composer_xe_2018.0/compilers_and_libraries_2018.0.128/linux/mpi/man:/opt/mpss_toolchains/composer/composer_xe_2018.0/documentation_2018/en/debugger//gdb-ia/man/:/opt/mpss_toolchains/composer/composer_xe_2018.0/documentation_2018/en/debugger//gdb-igfx/man/:/usr/local/man:/usr/share/man:\nINTEL_LICENSE_FILE=/opt/mpss_toolchains/composer/composer_xe_2018.0/compilers_and_libraries_2018.0.128/linux/licenses:/opt/intel/licenses:/home/berta/intel/licenses\nIPPROOT=/opt/mpss_toolchains/composer/composer_xe_2018.0/compilers_and_libraries_2018.0.128/linux/ipp\nGDBSERVER_MIC=/opt/mpss_toolchains/composer/composer_xe_2018.0/debugger_2018/gdb/targets/intel64/x200/bin/gdbserver\nLIBRARY_PATH=/opt/mpss_toolchains/composer/composer_xe_2018.0/compilers_and_libraries_2018.0.128/linux/ipp/lib/intel64:/opt/mpss_toolchains/composer/composer_xe_2018.0/compilers_and_libraries_2018.0.128/linux/compiler/lib/intel64_lin:/opt/mpss_toolchains/composer/composer_xe_2018.0/compilers_and_libraries_2018.0.128/linux/mkl/lib/intel64_lin:/opt/mpss_toolchains/composer/composer_xe_2018.0/compilers_and_libraries_2018.0.128/linux/tbb/lib/intel64/gcc4.7:/opt/mpss_toolchains/composer/composer_xe_2018.0/compilers_and_libraries_2018.0.128/linux/tbb/lib/intel64/gcc4.7:/opt/mpss_toolchains/composer/composer_xe_2018.0/compilers_and_libraries_2018.0.128/linux/daal/lib/intel64_lin:/opt/mpss_toolchains/composer/composer_xe_2018.0/compilers_and_libraries_2018.0.128/linux/daal/../tbb/lib/intel64_lin/gcc4.4\nLD_LIBRARY_PATH=/opt/mpss_toolchains/composer/composer_xe_2018.0/compilers_and_libraries_2018.0.128/linux/compiler/lib/intel64:/opt/mpss_toolchains/composer/composer_xe_2018.0/compilers_and_libraries_2018.0.128/linux/compiler/lib/intel64_lin:/opt/mpss_toolchains/composer/composer_xe_2018.0/compilers_and_libraries_2018.0.128/linux/mpi/intel64/lib:/opt/mpss_toolchains/composer/composer_xe_2018.0/compilers_and_libraries_2018.0.128/linux/mpi/mic/lib:/opt/mpss_toolchains/composer/composer_xe_2018.0/compilers_and_libraries_2018.0.128/linux/ipp/lib/intel64:/opt/mpss_toolchains/composer/composer_xe_2018.0/compilers_and_libraries_2018.0.128/linux/compiler/lib/intel64_lin:/opt/mpss_toolchains/composer/composer_xe_2018.0/compilers_and_libraries_2018.0.128/linux/mkl/lib/intel64_lin:/opt/mpss_toolchains/composer/composer_xe_2018.0/compilers_and_libraries_2018.0.128/linux/tbb/lib/intel64/gcc4.7:/opt/mpss_toolchains/composer/composer_xe_2018.0/compilers_and_libraries_2018.0.128/linux/tbb/lib/intel64/gcc4.7:/opt/mpss_toolchains/composer/composer_xe_2018.0/debugger_2018/iga/lib:/opt/mpss_toolchains/composer/composer_xe_2018.0/debugger_2018/libipt/intel64/lib:/opt/mpss_toolchains/composer/composer_xe_2018.0/compilers_and_libraries_2018.0.128/linux/daal/lib/intel64_lin:/opt/mpss_toolchains/composer/composer_xe_2018.0/compilers_and_libraries_2018.0.128/linux/daal/../tbb/lib/intel64_lin/gcc4.4\nPSTLROOT=/opt/mpss_toolchains/composer/composer_xe_2018.0/compilers_and_libraries_2018.0.128/linux/pstl\nCPATH=/opt/mpss_toolchains/composer/composer_xe_2018.0/compilers_and_libraries_2018.0.128/linux/ipp/include:/opt/mpss_toolchains/composer/composer_xe_2018.0/compilers_and_libraries_2018.0.128/linux/mkl/include:/opt/mpss_toolchains/composer/composer_xe_2018.0/compilers_and_libraries_2018.0.128/linux/pstl/include:/opt/mpss_toolchains/composer/composer_xe_2018.0/compilers_and_libraries_2018.0.128/linux/tbb/include:/opt/mpss_toolchains/composer/composer_xe_2018.0/compilers_and_libraries_2018.0.128/linux/tbb/include:/opt/mpss_toolchains/composer/composer_xe_2018.0/compilers_and_libraries_2018.0.128/linux/daal/include\nNLSPATH=/opt/mpss_toolchains/composer/composer_xe_2018.0/compilers_and_libraries_2018.0.128/linux/compiler/lib/intel64/locale/%l_%t/%N:/opt/mpss_toolchains/composer/composer_xe_2018.0/compilers_and_libraries_2018.0.128/linux/mkl/lib/intel64_lin/locale/%l_%t/%N:/opt/mpss_toolchains/composer/composer_xe_2018.0/debugger_2018/gdb/intel64/share/locale/%l_%t/%N\nTBBROOT=/opt/mpss_toolchains/composer/composer_xe_2018.0/compilers_and_libraries_2018.0.128/linux/tbb\nGDB_CROSS=/opt/mpss_toolchains/composer/composer_xe_2018.0/debugger_2018/gdb/intel64/bin/gdb-ia\nDAALROOT=/opt/mpss_toolchains/composer/composer_xe_2018.0/compilers_and_libraries_2018.0.128/linux/daal\nMPM_LAUNCHER=/opt/mpss_toolchains/composer/composer_xe_2018.0/debugger_2018/mpm/mic/bin/start_mpm.sh\nINTEL_PYTHONHOME=/opt/mpss_toolchains/composer/composer_xe_2018.0/debugger_2018/python/intel64/\nCLASSPATH=/opt/mpss_toolchains/composer/composer_xe_2018.0/compilers_and_libraries_2018.0.128/linux/mpi/intel64/lib/mpi.jar:/opt/mpss_toolchains/composer/composer_xe_2018.0/compilers_and_libraries_2018.0.128/linux/daal/lib/daal.jar\nINFOPATH=/opt/mpss_toolchains/composer/composer_xe_2018.0/documentation_2018/en/debugger//gdb-ia/info/:/opt/mpss_toolchains/composer/composer_xe_2018.0/documentation_2018/en/debugger//gdb-igfx/info/\nI_MPI_ROOT=/opt/mpss_toolchains/composer/composer_xe_2018.0/compilers_and_libraries_2018.0.128/linux/mpi\n\n'
p54
sS'uname --machine'
p55
S'x86_64\n\n'
p56
sS'uname --kernel-version'
p57
S'#1 SMP Thu Apr 6 14:16:09 UTC 2017 (7bc489d)\n\n'
p58
sS'uname --kernel-release'
p59
S'4.4.59-92.17-default\n\n'
p60
sS'dmidecode -t chassis'
p61
S'# dmidecode 3.0\nScanning /dev/mem for entry point.\n\n/sys/firmware/dmi/tables/smbios_entry_point: Permission denied\n/dev/mem: Permission denied\n'
p62
sS'uname --kernel-name'
p63
S'Linux\n\n'
p64
sS'dmidecode -t bios'
p65
S'# dmidecode 3.0\nScanning /dev/mem for entry point.\n\n/sys/firmware/dmi/tables/smbios_entry_point: Permission denied\n/dev/mem: Permission denied\n'
p66
sS'lspci -mmvvkD'
p67
S'Slot:\t0000:00:00.0\nClass:\tHost bridge\nVendor:\tIntel Corporation\nDevice:\tDevice 783e\nSVendor:\tIntel Corporation\nSDevice:\tDevice 35cb\nRev:\t10\n\nSlot:\t0000:00:05.0\nClass:\tSystem peripheral\nVendor:\tIntel Corporation\nDevice:\tDevice 7810\nSVendor:\tIntel Corporation\nSDevice:\tDevice 35cb\nRev:\t10\n\nSlot:\t0000:00:05.2\nClass:\tSystem peripheral\nVendor:\tIntel Corporation\nDevice:\tDevice 7812\nSVendor:\tIntel Corporation\nSDevice:\tDevice 35cb\nRev:\t10\n\nSlot:\t0000:00:05.4\nClass:\tPIC\nVendor:\tIntel Corporation\nDevice:\tDevice 7813\nSVendor:\tIntel Corporation\nSDevice:\tDevice 35cb\nRev:\t10\nProgIf:\t20\n\nSlot:\t0000:00:05.6\nClass:\tPerformance counters\nVendor:\tIntel Corporation\nDevice:\tDevice 7814\nSVendor:\tIntel Corporation\nSDevice:\tDevice 35cb\nRev:\t10\nDriver:\tknl_uncore\n\nSlot:\t0000:00:08.0\nClass:\tSystem peripheral\nVendor:\tIntel Corporation\nDevice:\tDevice 781a\nSVendor:\tIntel Corporation\nSDevice:\tDevice 35cb\nRev:\t10\n\nSlot:\t0000:00:08.1\nClass:\tPerformance counters\nVendor:\tIntel Corporation\nDevice:\tDevice 781b\nSVendor:\tIntel Corporation\nSDevice:\tDevice 35cb\nRev:\t10\n\nSlot:\t0000:00:08.2\nClass:\tSystem peripheral\nVendor:\tIntel Corporation\nDevice:\tDevice 781c\nSVendor:\tIntel Corporation\nSDevice:\tDevice 35cb\nRev:\t10\n\nSlot:\t0000:00:11.0\nClass:\tUnassigned class [ff00]\nVendor:\tIntel Corporation\nDevice:\tC610/X99 series chipset SPSR\nSVendor:\tIntel Corporation\nSDevice:\tDevice 0000\nRev:\t05\n\nSlot:\t0000:00:11.4\nClass:\tSATA controller\nVendor:\tIntel Corporation\nDevice:\tC610/X99 series chipset sSATA Controller [AHCI mode]\nSVendor:\tIntel Corporation\nSDevice:\tDevice 35cb\nRev:\t05\nProgIf:\t01\nDriver:\tahci\nModule:\tahci\n\nSlot:\t0000:00:14.0\nClass:\tUSB controller\nVendor:\tIntel Corporation\nDevice:\tC610/X99 series chipset USB xHCI Host Controller\nSVendor:\tIntel Corporation\nSDevice:\tDevice 35cb\nRev:\t05\nProgIf:\t30\nDriver:\txhci_hcd\nModule:\txhci_pci\n\nSlot:\t0000:00:16.0\nClass:\tCommunication controller\nVendor:\tIntel Corporation\nDevice:\tC610/X99 series chipset MEI Controller #1\nSVendor:\tIntel Corporation\nSDevice:\tDevice 35cb\nRev:\t05\nModule:\tmei_me\n\nSlot:\t0000:00:16.1\nClass:\tCommunication controller\nVendor:\tIntel Corporation\nDevice:\tC610/X99 series chipset MEI Controller #2\nSVendor:\tIntel Corporation\nSDevice:\tDevice 35cb\nRev:\t05\n\nSlot:\t0000:00:1a.0\nClass:\tUSB controller\nVendor:\tIntel Corporation\nDevice:\tC610/X99 series chipset USB Enhanced Host Controller #2\nSVendor:\tIntel Corporation\nSDevice:\tDevice 35cb\nRev:\t05\nProgIf:\t20\nDriver:\tehci-pci\nModule:\tehci_pci\n\nSlot:\t0000:00:1c.0\nClass:\tPCI bridge\nVendor:\tIntel Corporation\nDevice:\tC610/X99 series chipset PCI Express Root Port #1\nRev:\td5\nDriver:\tpcieport\nModule:\tshpchp\n\nSlot:\t0000:00:1c.4\nClass:\tPCI bridge\nVendor:\tIntel Corporation\nDevice:\tC610/X99 series chipset PCI Express Root Port #5\nRev:\td5\nDriver:\tpcieport\nModule:\tshpchp\n\nSlot:\t0000:00:1c.6\nClass:\tPCI bridge\nVendor:\tIntel Corporation\nDevice:\tC610/X99 series chipset PCI Express Root Port #7\nRev:\td5\nDriver:\tpcieport\nModule:\tshpchp\n\nSlot:\t0000:00:1c.7\nClass:\tPCI bridge\nVendor:\tIntel Corporation\nDevice:\tC610/X99 series chipset PCI Express Root Port #8\nRev:\td5\nDriver:\tpcieport\nModule:\tshpchp\n\nSlot:\t0000:00:1d.0\nClass:\tUSB controller\nVendor:\tIntel Corporation\nDevice:\tC610/X99 series chipset USB Enhanced Host Controller #1\nSVendor:\tIntel Corporation\nSDevice:\tDevice 35cb\nRev:\t05\nProgIf:\t20\nDriver:\tehci-pci\nModule:\tehci_pci\n\nSlot:\t0000:00:1f.0\nClass:\tISA bridge\nVendor:\tIntel Corporation\nDevice:\tC610/X99 series chipset LPC Controller\nSVendor:\tIntel Corporation\nSDevice:\tDevice 35cb\nRev:\t05\nDriver:\tlpc_ich\nModule:\tlpc_ich\n\nSlot:\t0000:00:1f.2\nClass:\tSATA controller\nVendor:\tIntel Corporation\nDevice:\tC610/X99 series chipset 6-Port SATA Controller [AHCI mode]\nSVendor:\tIntel Corporation\nSDevice:\tDevice 35cb\nRev:\t05\nProgIf:\t01\nDriver:\tahci\nModule:\tahci\n\nSlot:\t0000:00:1f.3\nClass:\tSMBus\nVendor:\tIntel Corporation\nDevice:\tC610/X99 series chipset SMBus Controller\nSVendor:\tIntel Corporation\nSDevice:\tDevice 35cb\nRev:\t05\nDriver:\ti801_smbus\nModule:\ti2c_i801\n\nSlot:\t0000:00:1f.6\nClass:\tSignal processing controller\nVendor:\tIntel Corporation\nDevice:\tC610/X99 series chipset Thermal Subsystem\nSVendor:\tIntel Corporation\nSDevice:\tDevice 35cb\nRev:\t05\n\nSlot:\t0000:02:00.0\nClass:\tVGA compatible controller\nVendor:\tMatrox Electronics Systems Ltd.\nDevice:\tMGA G200e [Pilot] ServerEngines (SEP1)\nSVendor:\tIntel Corporation\nSDevice:\tDevice 0103\nRev:\t05\nDriver:\tmgag200\nModule:\tmgag200\n\nSlot:\t0000:03:00.0\nClass:\tEthernet controller\nVendor:\tIntel Corporation\nDevice:\tI210 Gigabit Network Connection\nSVendor:\tIntel Corporation\nSDevice:\tDevice 35cb\nRev:\t03\nDriver:\tigb\nModule:\tigb\n\nSlot:\t0000:04:00.0\nClass:\tEthernet controller\nVendor:\tIntel Corporation\nDevice:\tI210 Gigabit Network Connection\nSVendor:\tIntel Corporation\nSDevice:\tDevice 35cb\nRev:\t03\nDriver:\tigb\nModule:\tigb\n\nSlot:\t0000:fe:08.0\nClass:\tSystem peripheral\nVendor:\tIntel Corporation\nDevice:\tDevice 782f\nSVendor:\tIntel Corporation\nSDevice:\tDevice 782f\nRev:\t10\n\nSlot:\t0000:fe:08.1\nClass:\tSystem peripheral\nVendor:\tIntel Corporation\nDevice:\tDevice 782f\nSVendor:\tIntel Corporation\nSDevice:\tDevice 782f\nRev:\t10\n\nSlot:\t0000:fe:08.2\nClass:\tSystem peripheral\nVendor:\tIntel Corporation\nDevice:\tDevice 782f\nSVendor:\tIntel Corporation\nSDevice:\tDevice 782f\nRev:\t10\n\nSlot:\t0000:fe:08.3\nClass:\tSystem peripheral\nVendor:\tIntel Corporation\nDevice:\tDevice 782f\nSVendor:\tIntel Corporation\nSDevice:\tDevice 782f\nRev:\t10\n\nSlot:\t0000:fe:08.4\nClass:\tSystem peripheral\nVendor:\tIntel Corporation\nDevice:\tDevice 782f\nSVendor:\tIntel Corporation\nSDevice:\tDevice 782f\nRev:\t10\n\nSlot:\t0000:fe:08.5\nClass:\tSystem peripheral\nVendor:\tIntel Corporation\nDevice:\tDevice 782f\nSVendor:\tIntel Corporation\nSDevice:\tDevice 782f\nRev:\t10\n\nSlot:\t0000:fe:08.6\nClass:\tSystem peripheral\nVendor:\tIntel Corporation\nDevice:\tDevice 782f\nSVendor:\tIntel Corporation\nSDevice:\tDevice 782f\nRev:\t10\n\nSlot:\t0000:fe:08.7\nClass:\tSystem peripheral\nVendor:\tIntel Corporation\nDevice:\tDevice 782f\nSVendor:\tIntel Corporation\nSDevice:\tDevice 782f\nRev:\t10\n\nSlot:\t0000:fe:09.0\nClass:\tSystem peripheral\nVendor:\tIntel Corporation\nDevice:\tDevice 782f\nSVendor:\tIntel Corporation\nSDevice:\tDevice 782f\nRev:\t10\n\nSlot:\t0000:fe:09.1\nClass:\tSystem peripheral\nVendor:\tIntel Corporation\nDevice:\tDevice 782f\nSVendor:\tIntel Corporation\nSDevice:\tDevice 782f\nRev:\t10\n\nSlot:\t0000:fe:09.2\nClass:\tSystem peripheral\nVendor:\tIntel Corporation\nDevice:\tDevice 782f\nSVendor:\tIntel Corporation\nSDevice:\tDevice 782f\nRev:\t10\n\nSlot:\t0000:fe:09.3\nClass:\tSystem peripheral\nVendor:\tIntel Corporation\nDevice:\tDevice 782f\nSVendor:\tIntel Corporation\nSDevice:\tDevice 782f\nRev:\t10\n\nSlot:\t0000:fe:09.4\nClass:\tSystem peripheral\nVendor:\tIntel Corporation\nDevice:\tDevice 782f\nSVendor:\tIntel Corporation\nSDevice:\tDevice 782f\nRev:\t10\n\nSlot:\t0000:fe:09.5\nClass:\tSystem peripheral\nVendor:\tIntel Corporation\nDevice:\tDevice 782f\nSVendor:\tIntel Corporation\nSDevice:\tDevice 782f\nRev:\t10\n\nSlot:\t0000:fe:09.6\nClass:\tSystem peripheral\nVendor:\tIntel Corporation\nDevice:\tDevice 782f\nSVendor:\tIntel Corporation\nSDevice:\tDevice 782f\nRev:\t10\n\nSlot:\t0000:fe:09.7\nClass:\tSystem peripheral\nVendor:\tIntel Corporation\nDevice:\tDevice 782f\nSVendor:\tIntel Corporation\nSDevice:\tDevice 782f\nRev:\t10\n\nSlot:\t0000:fe:0a.0\nClass:\tSystem peripheral\nVendor:\tIntel Corporation\nDevice:\tDevice 782f\nSVendor:\tIntel Corporation\nSDevice:\tDevice 782f\nRev:\t10\n\nSlot:\t0000:fe:0a.1\nClass:\tSystem peripheral\nVendor:\tIntel Corporation\nDevice:\tDevice 782f\nSVendor:\tIntel Corporation\nSDevice:\tDevice 782f\nRev:\t10\n\nSlot:\t0000:fe:0a.2\nClass:\tSystem peripheral\nVendor:\tIntel Corporation\nDevice:\tDevice 782f\nSVendor:\tIntel Corporation\nSDevice:\tDevice 782f\nRev:\t10\n\nSlot:\t0000:fe:0a.3\nClass:\tSystem peripheral\nVendor:\tIntel Corporation\nDevice:\tDevice 782f\nSVendor:\tIntel Corporation\nSDevice:\tDevice 782f\nRev:\t10\n\nSlot:\t0000:fe:0a.4\nClass:\tSystem peripheral\nVendor:\tIntel Corporation\nDevice:\tDevice 782f\nSVendor:\tIntel Corporation\nSDevice:\tDevice 782f\nRev:\t10\n\nSlot:\t0000:fe:0a.5\nClass:\tSystem peripheral\nVendor:\tIntel Corporation\nDevice:\tDevice 782f\nSVendor:\tIntel Corporation\nSDevice:\tDevice 782f\nRev:\t10\n\nSlot:\t0000:fe:0a.6\nClass:\tSystem peripheral\nVendor:\tIntel Corporation\nDevice:\tDevice 782f\nSVendor:\tIntel Corporation\nSDevice:\tDevice 782f\nRev:\t10\n\nSlot:\t0000:fe:0a.7\nClass:\tSystem peripheral\nVendor:\tIntel Corporation\nDevice:\tDevice 782f\nSVendor:\tIntel Corporation\nSDevice:\tDevice 782f\nRev:\t10\n\nSlot:\t0000:fe:0b.0\nClass:\tSystem peripheral\nVendor:\tIntel Corporation\nDevice:\tDevice 782f\nSVendor:\tIntel Corporation\nSDevice:\tDevice 782f\nRev:\t10\n\nSlot:\t0000:fe:0b.1\nClass:\tSystem peripheral\nVendor:\tIntel Corporation\nDevice:\tDevice 782f\nSVendor:\tIntel Corporation\nSDevice:\tDevice 782f\nRev:\t10\n\nSlot:\t0000:fe:0b.2\nClass:\tSystem peripheral\nVendor:\tIntel Corporation\nDevice:\tDevice 782f\nSVendor:\tIntel Corporation\nSDevice:\tDevice 782f\nRev:\t10\n\nSlot:\t0000:fe:0b.3\nClass:\tSystem peripheral\nVendor:\tIntel Corporation\nDevice:\tDevice 782f\nSVendor:\tIntel Corporation\nSDevice:\tDevice 782f\nRev:\t10\n\nSlot:\t0000:fe:0b.4\nClass:\tSystem peripheral\nVendor:\tIntel Corporation\nDevice:\tDevice 782f\nSVendor:\tIntel Corporation\nSDevice:\tDevice 782f\nRev:\t10\n\nSlot:\t0000:fe:0b.5\nClass:\tSystem peripheral\nVendor:\tIntel Corporation\nDevice:\tDevice 782f\nSVendor:\tIntel Corporation\nSDevice:\tDevice 782f\nRev:\t10\n\nSlot:\t0000:fe:0b.6\nClass:\tSystem peripheral\nVendor:\tIntel Corporation\nDevice:\tDevice 782f\nSVendor:\tIntel Corporation\nSDevice:\tDevice 782f\nRev:\t10\n\nSlot:\t0000:fe:0b.7\nClass:\tSystem peripheral\nVendor:\tIntel Corporation\nDevice:\tDevice 782f\nSVendor:\tIntel Corporation\nSDevice:\tDevice 782f\nRev:\t10\n\nSlot:\t0000:fe:0c.0\nClass:\tSystem peripheral\nVendor:\tIntel Corporation\nDevice:\tDevice 782f\nSVendor:\tIntel Corporation\nSDevice:\tDevice 782f\nRev:\t10\n\nSlot:\t0000:fe:0c.1\nClass:\tSystem peripheral\nVendor:\tIntel Corporation\nDevice:\tDevice 782f\nSVendor:\tIntel Corporation\nSDevice:\tDevice 782f\nRev:\t10\n\nSlot:\t0000:fe:0c.2\nClass:\tSystem peripheral\nVendor:\tIntel Corporation\nDevice:\tDevice 782f\nSVendor:\tIntel Corporation\nSDevice:\tDevice 782f\nRev:\t10\n\nSlot:\t0000:fe:0c.3\nClass:\tSystem peripheral\nVendor:\tIntel Corporation\nDevice:\tDevice 782f\nSVendor:\tIntel Corporation\nSDevice:\tDevice 782f\nRev:\t10\n\nSlot:\t0000:fe:0c.4\nClass:\tSystem peripheral\nVendor:\tIntel Corporation\nDevice:\tDevice 782f\nSVendor:\tIntel Corporation\nSDevice:\tDevice 782f\nRev:\t10\n\nSlot:\t0000:fe:0c.5\nClass:\tSystem peripheral\nVendor:\tIntel Corporation\nDevice:\tDevice 782f\nSVendor:\tIntel Corporation\nSDevice:\tDevice 782f\nRev:\t10\n\nSlot:\t0000:fe:0e.0\nClass:\tSystem peripheral\nVendor:\tIntel Corporation\nDevice:\tDevice 782c\nSVendor:\tIntel Corporation\nSDevice:\tDevice 782c\nRev:\t10\n\nSlot:\t0000:fe:0e.1\nClass:\tSystem peripheral\nVendor:\tIntel Corporation\nDevice:\tDevice 782c\nSVendor:\tIntel Corporation\nSDevice:\tDevice 782c\nRev:\t10\n\nSlot:\t0000:fe:0e.2\nClass:\tSystem peripheral\nVendor:\tIntel Corporation\nDevice:\tDevice 782c\nSVendor:\tIntel Corporation\nSDevice:\tDevice 782c\nRev:\t10\n\nSlot:\t0000:fe:0e.3\nClass:\tSystem peripheral\nVendor:\tIntel Corporation\nDevice:\tDevice 782c\nSVendor:\tIntel Corporation\nSDevice:\tDevice 782c\nRev:\t10\n\nSlot:\t0000:fe:0e.4\nClass:\tSystem peripheral\nVendor:\tIntel Corporation\nDevice:\tDevice 782c\nSVendor:\tIntel Corporation\nSDevice:\tDevice 782c\nRev:\t10\n\nSlot:\t0000:fe:0e.5\nClass:\tSystem peripheral\nVendor:\tIntel Corporation\nDevice:\tDevice 782c\nSVendor:\tIntel Corporation\nSDevice:\tDevice 782c\nRev:\t10\n\nSlot:\t0000:fe:0e.6\nClass:\tSystem peripheral\nVendor:\tIntel Corporation\nDevice:\tDevice 782c\nSVendor:\tIntel Corporation\nSDevice:\tDevice 782c\nRev:\t10\n\nSlot:\t0000:fe:0e.7\nClass:\tSystem peripheral\nVendor:\tIntel Corporation\nDevice:\tDevice 782c\nSVendor:\tIntel Corporation\nSDevice:\tDevice 782c\nRev:\t10\n\nSlot:\t0000:fe:0f.0\nClass:\tSystem peripheral\nVendor:\tIntel Corporation\nDevice:\tDevice 782c\nSVendor:\tIntel Corporation\nSDevice:\tDevice 782c\nRev:\t10\n\nSlot:\t0000:fe:0f.1\nClass:\tSystem peripheral\nVendor:\tIntel Corporation\nDevice:\tDevice 782c\nSVendor:\tIntel Corporation\nSDevice:\tDevice 782c\nRev:\t10\n\nSlot:\t0000:fe:0f.2\nClass:\tSystem peripheral\nVendor:\tIntel Corporation\nDevice:\tDevice 782c\nSVendor:\tIntel Corporation\nSDevice:\tDevice 782c\nRev:\t10\n\nSlot:\t0000:fe:0f.3\nClass:\tSystem peripheral\nVendor:\tIntel Corporation\nDevice:\tDevice 782c\nSVendor:\tIntel Corporation\nSDevice:\tDevice 782c\nRev:\t10\n\nSlot:\t0000:fe:0f.4\nClass:\tSystem peripheral\nVendor:\tIntel Corporation\nDevice:\tDevice 782c\nSVendor:\tIntel Corporation\nSDevice:\tDevice 782c\nRev:\t10\n\nSlot:\t0000:fe:0f.5\nClass:\tSystem peripheral\nVendor:\tIntel Corporation\nDevice:\tDevice 782c\nSVendor:\tIntel Corporation\nSDevice:\tDevice 782c\nRev:\t10\n\nSlot:\t0000:fe:0f.6\nClass:\tSystem peripheral\nVendor:\tIntel Corporation\nDevice:\tDevice 782c\nSVendor:\tIntel Corporation\nSDevice:\tDevice 782c\nRev:\t10\n\nSlot:\t0000:fe:0f.7\nClass:\tSystem peripheral\nVendor:\tIntel Corporation\nDevice:\tDevice 782c\nSVendor:\tIntel Corporation\nSDevice:\tDevice 782c\nRev:\t10\n\nSlot:\t0000:fe:10.0\nClass:\tSystem peripheral\nVendor:\tIntel Corporation\nDevice:\tDevice 782c\nSVendor:\tIntel Corporation\nSDevice:\tDevice 782c\nRev:\t10\n\nSlot:\t0000:fe:10.1\nClass:\tSystem peripheral\nVendor:\tIntel Corporation\nDevice:\tDevice 782c\nSVendor:\tIntel Corporation\nSDevice:\tDevice 782c\nRev:\t10\n\nSlot:\t0000:fe:10.2\nClass:\tSystem peripheral\nVendor:\tIntel Corporation\nDevice:\tDevice 782c\nSVendor:\tIntel Corporation\nSDevice:\tDevice 782c\nRev:\t10\n\nSlot:\t0000:fe:10.3\nClass:\tSystem peripheral\nVendor:\tIntel Corporation\nDevice:\tDevice 782c\nSVendor:\tIntel Corporation\nSDevice:\tDevice 782c\nRev:\t10\n\nSlot:\t0000:fe:10.4\nClass:\tSystem peripheral\nVendor:\tIntel Corporation\nDevice:\tDevice 782c\nSVendor:\tIntel Corporation\nSDevice:\tDevice 782c\nRev:\t10\n\nSlot:\t0000:fe:10.5\nClass:\tSystem peripheral\nVendor:\tIntel Corporation\nDevice:\tDevice 782c\nSVendor:\tIntel Corporation\nSDevice:\tDevice 782c\nRev:\t10\n\nSlot:\t0000:fe:10.6\nClass:\tSystem peripheral\nVendor:\tIntel Corporation\nDevice:\tDevice 782c\nSVendor:\tIntel Corporation\nSDevice:\tDevice 782c\nRev:\t10\n\nSlot:\t0000:fe:10.7\nClass:\tSystem peripheral\nVendor:\tIntel Corporation\nDevice:\tDevice 782c\nSVendor:\tIntel Corporation\nSDevice:\tDevice 782c\nRev:\t10\n\nSlot:\t0000:fe:11.0\nClass:\tSystem peripheral\nVendor:\tIntel Corporation\nDevice:\tDevice 782c\nSVendor:\tIntel Corporation\nSDevice:\tDevice 782c\nRev:\t10\n\nSlot:\t0000:fe:11.1\nClass:\tSystem peripheral\nVendor:\tIntel Corporation\nDevice:\tDevice 782c\nSVendor:\tIntel Corporation\nSDevice:\tDevice 782c\nRev:\t10\n\nSlot:\t0000:fe:11.2\nClass:\tSystem peripheral\nVendor:\tIntel Corporation\nDevice:\tDevice 782c\nSVendor:\tIntel Corporation\nSDevice:\tDevice 782c\nRev:\t10\n\nSlot:\t0000:fe:11.3\nClass:\tSystem peripheral\nVendor:\tIntel Corporation\nDevice:\tDevice 782c\nSVendor:\tIntel Corporation\nSDevice:\tDevice 782c\nRev:\t10\n\nSlot:\t0000:fe:11.4\nClass:\tSystem peripheral\nVendor:\tIntel Corporation\nDevice:\tDevice 782c\nSVendor:\tIntel Corporation\nSDevice:\tDevice 782c\nRev:\t10\n\nSlot:\t0000:fe:11.5\nClass:\tSystem peripheral\nVendor:\tIntel Corporation\nDevice:\tDevice 782c\nSVendor:\tIntel Corporation\nSDevice:\tDevice 782c\nRev:\t10\n\nSlot:\t0000:fe:11.6\nClass:\tSystem peripheral\nVendor:\tIntel Corporation\nDevice:\tDevice 782c\nSVendor:\tIntel Corporation\nSDevice:\tDevice 782c\nRev:\t10\n\nSlot:\t0000:fe:11.7\nClass:\tSystem peripheral\nVendor:\tIntel Corporation\nDevice:\tDevice 782c\nSVendor:\tIntel Corporation\nSDevice:\tDevice 782c\nRev:\t10\n\nSlot:\t0000:fe:12.0\nClass:\tSystem peripheral\nVendor:\tIntel Corporation\nDevice:\tDevice 782c\nSVendor:\tIntel Corporation\nSDevice:\tDevice 782c\nRev:\t10\n\nSlot:\t0000:fe:12.1\nClass:\tSystem peripheral\nVendor:\tIntel Corporation\nDevice:\tDevice 782c\nSVendor:\tIntel Corporation\nSDevice:\tDevice 782c\nRev:\t10\n\nSlot:\t0000:fe:12.2\nClass:\tSystem peripheral\nVendor:\tIntel Corporation\nDevice:\tDevice 782c\nSVendor:\tIntel Corporation\nSDevice:\tDevice 782c\nRev:\t10\n\nSlot:\t0000:fe:12.3\nClass:\tSystem peripheral\nVendor:\tIntel Corporation\nDevice:\tDevice 782c\nSVendor:\tIntel Corporation\nSDevice:\tDevice 782c\nRev:\t10\n\nSlot:\t0000:fe:12.4\nClass:\tSystem peripheral\nVendor:\tIntel Corporation\nDevice:\tDevice 782c\nSVendor:\tIntel Corporation\nSDevice:\tDevice 782c\nRev:\t10\n\nSlot:\t0000:fe:12.5\nClass:\tSystem peripheral\nVendor:\tIntel Corporation\nDevice:\tDevice 782c\nSVendor:\tIntel Corporation\nSDevice:\tDevice 782c\nRev:\t10\n\nSlot:\t0000:fe:14.0\nClass:\tSystem peripheral\nVendor:\tIntel Corporation\nDevice:\tDevice 781f\nSVendor:\tIntel Corporation\nSDevice:\tDevice 781f\nRev:\t10\n\nSlot:\t0000:fe:14.1\nClass:\tSystem peripheral\nVendor:\tIntel Corporation\nDevice:\tDevice 781f\nSVendor:\tIntel Corporation\nSDevice:\tDevice 781f\nRev:\t10\n\nSlot:\t0000:fe:14.2\nClass:\tSystem peripheral\nVendor:\tIntel Corporation\nDevice:\tDevice 781f\nSVendor:\tIntel Corporation\nSDevice:\tDevice 781f\nRev:\t10\n\nSlot:\t0000:fe:14.3\nClass:\tSystem peripheral\nVendor:\tIntel Corporation\nDevice:\tDevice 781f\nSVendor:\tIntel Corporation\nSDevice:\tDevice 781f\nRev:\t10\n\nSlot:\t0000:fe:14.4\nClass:\tSystem peripheral\nVendor:\tIntel Corporation\nDevice:\tDevice 781f\nSVendor:\tIntel Corporation\nSDevice:\tDevice 781f\nRev:\t10\n\nSlot:\t0000:fe:14.5\nClass:\tSystem peripheral\nVendor:\tIntel Corporation\nDevice:\tDevice 781f\nSVendor:\tIntel Corporation\nSDevice:\tDevice 781f\nRev:\t10\n\nSlot:\t0000:fe:14.6\nClass:\tSystem peripheral\nVendor:\tIntel Corporation\nDevice:\tDevice 781f\nSVendor:\tIntel Corporation\nSDevice:\tDevice 781f\nRev:\t10\n\nSlot:\t0000:fe:14.7\nClass:\tSystem peripheral\nVendor:\tIntel Corporation\nDevice:\tDevice 781f\nSVendor:\tIntel Corporation\nSDevice:\tDevice 781f\nRev:\t10\n\nSlot:\t0000:fe:15.0\nClass:\tSystem peripheral\nVendor:\tIntel Corporation\nDevice:\tDevice 781f\nSVendor:\tIntel Corporation\nSDevice:\tDevice 781f\nRev:\t10\n\nSlot:\t0000:fe:15.1\nClass:\tSystem peripheral\nVendor:\tIntel Corporation\nDevice:\tDevice 781f\nSVendor:\tIntel Corporation\nSDevice:\tDevice 781f\nRev:\t10\n\nSlot:\t0000:fe:15.2\nClass:\tSystem peripheral\nVendor:\tIntel Corporation\nDevice:\tDevice 781f\nSVendor:\tIntel Corporation\nSDevice:\tDevice 781f\nRev:\t10\n\nSlot:\t0000:fe:15.3\nClass:\tSystem peripheral\nVendor:\tIntel Corporation\nDevice:\tDevice 781f\nSVendor:\tIntel Corporation\nSDevice:\tDevice 781f\nRev:\t10\n\nSlot:\t0000:fe:15.4\nClass:\tSystem peripheral\nVendor:\tIntel Corporation\nDevice:\tDevice 781f\nSVendor:\tIntel Corporation\nSDevice:\tDevice 781f\nRev:\t10\n\nSlot:\t0000:fe:15.5\nClass:\tSystem peripheral\nVendor:\tIntel Corporation\nDevice:\tDevice 781f\nSVendor:\tIntel Corporation\nSDevice:\tDevice 781f\nRev:\t10\n\nSlot:\t0000:fe:15.6\nClass:\tSystem peripheral\nVendor:\tIntel Corporation\nDevice:\tDevice 781f\nSVendor:\tIntel Corporation\nSDevice:\tDevice 781f\nRev:\t10\n\nSlot:\t0000:fe:15.7\nClass:\tSystem peripheral\nVendor:\tIntel Corporation\nDevice:\tDevice 781f\nSVendor:\tIntel Corporation\nSDevice:\tDevice 781f\nRev:\t10\n\nSlot:\t0000:fe:16.0\nClass:\tSystem peripheral\nVendor:\tIntel Corporation\nDevice:\tDevice 781f\nSVendor:\tIntel Corporation\nSDevice:\tDevice 781f\nRev:\t10\n\nSlot:\t0000:fe:16.1\nClass:\tSystem peripheral\nVendor:\tIntel Corporation\nDevice:\tDevice 781f\nSVendor:\tIntel Corporation\nSDevice:\tDevice 781f\nRev:\t10\n\nSlot:\t0000:fe:16.2\nClass:\tSystem peripheral\nVendor:\tIntel Corporation\nDevice:\tDevice 781f\nSVendor:\tIntel Corporation\nSDevice:\tDevice 781f\nRev:\t10\n\nSlot:\t0000:fe:16.3\nClass:\tSystem peripheral\nVendor:\tIntel Corporation\nDevice:\tDevice 781f\nSVendor:\tIntel Corporation\nSDevice:\tDevice 781f\nRev:\t10\n\nSlot:\t0000:fe:16.4\nClass:\tSystem peripheral\nVendor:\tIntel Corporation\nDevice:\tDevice 781f\nSVendor:\tIntel Corporation\nSDevice:\tDevice 781f\nRev:\t10\n\nSlot:\t0000:fe:16.5\nClass:\tSystem peripheral\nVendor:\tIntel Corporation\nDevice:\tDevice 781f\nSVendor:\tIntel Corporation\nSDevice:\tDevice 781f\nRev:\t10\n\nSlot:\t0000:fe:16.6\nClass:\tSystem peripheral\nVendor:\tIntel Corporation\nDevice:\tDevice 781f\nSVendor:\tIntel Corporation\nSDevice:\tDevice 781f\nRev:\t10\n\nSlot:\t0000:fe:16.7\nClass:\tSystem peripheral\nVendor:\tIntel Corporation\nDevice:\tDevice 781f\nSVendor:\tIntel Corporation\nSDevice:\tDevice 781f\nRev:\t10\n\nSlot:\t0000:fe:17.0\nClass:\tSystem peripheral\nVendor:\tIntel Corporation\nDevice:\tDevice 781f\nSVendor:\tIntel Corporation\nSDevice:\tDevice 781f\nRev:\t10\n\nSlot:\t0000:fe:17.1\nClass:\tSystem peripheral\nVendor:\tIntel Corporation\nDevice:\tDevice 781f\nSVendor:\tIntel Corporation\nSDevice:\tDevice 781f\nRev:\t10\n\nSlot:\t0000:fe:17.2\nClass:\tSystem peripheral\nVendor:\tIntel Corporation\nDevice:\tDevice 781f\nSVendor:\tIntel Corporation\nSDevice:\tDevice 781f\nRev:\t10\n\nSlot:\t0000:fe:17.3\nClass:\tSystem peripheral\nVendor:\tIntel Corporation\nDevice:\tDevice 781f\nSVendor:\tIntel Corporation\nSDevice:\tDevice 781f\nRev:\t10\n\nSlot:\t0000:fe:17.4\nClass:\tSystem peripheral\nVendor:\tIntel Corporation\nDevice:\tDevice 781f\nSVendor:\tIntel Corporation\nSDevice:\tDevice 781f\nRev:\t10\n\nSlot:\t0000:fe:17.5\nClass:\tSystem peripheral\nVendor:\tIntel Corporation\nDevice:\tDevice 781f\nSVendor:\tIntel Corporation\nSDevice:\tDevice 781f\nRev:\t10\n\nSlot:\t0000:fe:17.6\nClass:\tSystem peripheral\nVendor:\tIntel Corporation\nDevice:\tDevice 781f\nSVendor:\tIntel Corporation\nSDevice:\tDevice 781f\nRev:\t10\n\nSlot:\t0000:fe:17.7\nClass:\tSystem peripheral\nVendor:\tIntel Corporation\nDevice:\tDevice 781f\nSVendor:\tIntel Corporation\nSDevice:\tDevice 781f\nRev:\t10\n\nSlot:\t0000:fe:18.0\nClass:\tSystem peripheral\nVendor:\tIntel Corporation\nDevice:\tDevice 781f\nSVendor:\tIntel Corporation\nSDevice:\tDevice 781f\nRev:\t10\n\nSlot:\t0000:fe:18.1\nClass:\tSystem peripheral\nVendor:\tIntel Corporation\nDevice:\tDevice 781f\nSVendor:\tIntel Corporation\nSDevice:\tDevice 781f\nRev:\t10\n\nSlot:\t0000:fe:18.2\nClass:\tSystem peripheral\nVendor:\tIntel Corporation\nDevice:\tDevice 781f\nSVendor:\tIntel Corporation\nSDevice:\tDevice 781f\nRev:\t10\n\nSlot:\t0000:fe:18.3\nClass:\tSystem peripheral\nVendor:\tIntel Corporation\nDevice:\tDevice 781f\nSVendor:\tIntel Corporation\nSDevice:\tDevice 781f\nRev:\t10\n\nSlot:\t0000:fe:18.4\nClass:\tSystem peripheral\nVendor:\tIntel Corporation\nDevice:\tDevice 781f\nSVendor:\tIntel Corporation\nSDevice:\tDevice 781f\nRev:\t10\n\nSlot:\t0000:fe:18.5\nClass:\tSystem peripheral\nVendor:\tIntel Corporation\nDevice:\tDevice 781f\nSVendor:\tIntel Corporation\nSDevice:\tDevice 781f\nRev:\t10\n\nSlot:\t0000:fe:1d.0\nClass:\tSystem peripheral\nVendor:\tIntel Corporation\nDevice:\tDevice 782a\nSVendor:\tIntel Corporation\nSDevice:\tDevice 782a\nRev:\t10\nDriver:\tsbridge_edac\nModule:\tsb_edac\n\nSlot:\t0000:fe:1d.1\nClass:\tSystem peripheral\nVendor:\tIntel Corporation\nDevice:\tDevice 782b\nSVendor:\tIntel Corporation\nSDevice:\tDevice 782b\nRev:\t10\n\nSlot:\t0000:fe:1d.2\nClass:\tSystem peripheral\nVendor:\tIntel Corporation\nDevice:\tDevice 782e\nSVendor:\tIntel Corporation\nSDevice:\tDevice 782f\nRev:\t10\n\nSlot:\t0000:fe:1d.3\nClass:\tSystem peripheral\nVendor:\tIntel Corporation\nDevice:\tDevice 782d\nSVendor:\tIntel Corporation\nSDevice:\tDevice 782d\nRev:\t10\n\nSlot:\t0000:fe:1e.0\nClass:\tSystem peripheral\nVendor:\tIntel Corporation\nDevice:\tDevice 7820\nSVendor:\tIntel Corporation\nSDevice:\tDevice 7820\nRev:\t10\n\nSlot:\t0000:fe:1e.1\nClass:\tSystem peripheral\nVendor:\tIntel Corporation\nDevice:\tDevice 7821\nSVendor:\tIntel Corporation\nSDevice:\tDevice 7821\nRev:\t10\n\nSlot:\t0000:fe:1e.2\nClass:\tSystem peripheral\nVendor:\tIntel Corporation\nDevice:\tDevice 7822\nSVendor:\tIntel Corporation\nSDevice:\tDevice 7822\nRev:\t10\n\nSlot:\t0000:fe:1e.3\nClass:\tSystem peripheral\nVendor:\tIntel Corporation\nDevice:\tDevice 7823\nSVendor:\tIntel Corporation\nSDevice:\tDevice 7823\nRev:\t10\n\nSlot:\t0000:fe:1e.4\nClass:\tSystem peripheral\nVendor:\tIntel Corporation\nDevice:\tDevice 7824\nSVendor:\tIntel Corporation\nSDevice:\tDevice 7824\nRev:\t10\n\nSlot:\t0000:fe:1e.5\nClass:\tSystem peripheral\nVendor:\tIntel Corporation\nDevice:\tDevice 7825\nSVendor:\tIntel Corporation\nSDevice:\tDevice 7825\nRev:\t10\n\nSlot:\t0000:fe:1e.6\nClass:\tSystem peripheral\nVendor:\tIntel Corporation\nDevice:\tDevice 7826\nSVendor:\tIntel Corporation\nSDevice:\tDevice 7826\nRev:\t10\n\nSlot:\t0000:ff:08.0\nClass:\tSystem peripheral\nVendor:\tIntel Corporation\nDevice:\tDevice 7840\nSVendor:\tIntel Corporation\nSDevice:\tDevice 35cb\nRev:\t10\n\nSlot:\t0000:ff:08.1\nClass:\tSystem peripheral\nVendor:\tIntel Corporation\nDevice:\tDevice 7842\nSVendor:\tIntel Corporation\nSDevice:\tDevice 35cb\nRev:\t10\n\nSlot:\t0000:ff:08.2\nClass:\tSystem peripheral\nVendor:\tIntel Corporation\nDevice:\tDevice 7843\nSVendor:\tIntel Corporation\nSDevice:\tDevice 35cb\nRev:\t10\nDriver:\tknl_uncore\n\nSlot:\t0000:ff:08.3\nClass:\tSystem peripheral\nVendor:\tIntel Corporation\nDevice:\tDevice 7843\nSVendor:\tIntel Corporation\nSDevice:\tDevice 35cb\nRev:\t10\nDriver:\tknl_uncore\n\nSlot:\t0000:ff:08.4\nClass:\tSystem peripheral\nVendor:\tIntel Corporation\nDevice:\tDevice 7843\nSVendor:\tIntel Corporation\nSDevice:\tDevice 35cb\nRev:\t10\nDriver:\tknl_uncore\n\nSlot:\t0000:ff:09.0\nClass:\tSystem peripheral\nVendor:\tIntel Corporation\nDevice:\tDevice 7840\nSVendor:\tIntel Corporation\nSDevice:\tDevice 35cb\nRev:\t10\n\nSlot:\t0000:ff:09.1\nClass:\tSystem peripheral\nVendor:\tIntel Corporation\nDevice:\tDevice 7842\nSVendor:\tIntel Corporation\nSDevice:\tDevice 35cb\nRev:\t10\n\nSlot:\t0000:ff:09.2\nClass:\tSystem peripheral\nVendor:\tIntel Corporation\nDevice:\tDevice 7843\nSVendor:\tIntel Corporation\nSDevice:\tDevice 35cb\nRev:\t10\nDriver:\tknl_uncore\n\nSlot:\t0000:ff:09.3\nClass:\tSystem peripheral\nVendor:\tIntel Corporation\nDevice:\tDevice 7843\nSVendor:\tIntel Corporation\nSDevice:\tDevice 35cb\nRev:\t10\nDriver:\tknl_uncore\n\nSlot:\t0000:ff:09.4\nClass:\tSystem peripheral\nVendor:\tIntel Corporation\nDevice:\tDevice 7843\nSVendor:\tIntel Corporation\nSDevice:\tDevice 35cb\nRev:\t10\nDriver:\tknl_uncore\n\nSlot:\t0000:ff:0a.0\nClass:\tSystem peripheral\nVendor:\tIntel Corporation\nDevice:\tDevice 7841\nSVendor:\tIntel Corporation\nSDevice:\tDevice 35cb\nRev:\t10\nDriver:\tknl_uncore\n\nSlot:\t0000:ff:0a.1\nClass:\tSystem peripheral\nVendor:\tIntel Corporation\nDevice:\tDevice 7844\nSVendor:\tIntel Corporation\nSDevice:\tDevice 35cb\nRev:\t10\n\nSlot:\t0000:ff:0a.2\nClass:\tSystem peripheral\nVendor:\tIntel Corporation\nDevice:\tDevice 781f\nSVendor:\tIntel Corporation\nSDevice:\tDevice 35cb\nRev:\t10\n\nSlot:\t0000:ff:0b.0\nClass:\tSystem peripheral\nVendor:\tIntel Corporation\nDevice:\tDevice 7841\nSVendor:\tIntel Corporation\nSDevice:\tDevice 35cb\nRev:\t10\nDriver:\tknl_uncore\n\nSlot:\t0000:ff:0b.1\nClass:\tSystem peripheral\nVendor:\tIntel Corporation\nDevice:\tDevice 7844\nSVendor:\tIntel Corporation\nSDevice:\tDevice 35cb\nRev:\t10\n\nSlot:\t0000:ff:0b.2\nClass:\tSystem peripheral\nVendor:\tIntel Corporation\nDevice:\tDevice 781f\nSVendor:\tIntel Corporation\nSDevice:\tDevice 35cb\nRev:\t10\n\nSlot:\t0000:ff:0c.0\nClass:\tSystem peripheral\nVendor:\tIntel Corporation\nDevice:\tDevice 7816\nSVendor:\tIntel Corporation\nSDevice:\tDevice 35cb\nRev:\t10\n\nSlot:\t0000:ff:0c.1\nClass:\tPerformance counters\nVendor:\tIntel Corporation\nDevice:\tDevice 7817\nSVendor:\tIntel Corporation\nSDevice:\tDevice 35cb\nRev:\t10\nDriver:\tknl_uncore\n\nSlot:\t0000:ff:0c.2\nClass:\tSystem peripheral\nVendor:\tIntel Corporation\nDevice:\tDevice 781f\nSVendor:\tIntel Corporation\nSDevice:\tDevice 35cb\nRev:\t10\n\nSlot:\t0000:ff:0f.0\nClass:\tSystem peripheral\nVendor:\tIntel Corporation\nDevice:\tDevice 7833\nSVendor:\tIntel Corporation\nSDevice:\tDevice 35cb\nRev:\t10\nDriver:\tknl_uncore\n\nSlot:\t0000:ff:0f.1\nClass:\tSystem peripheral\nVendor:\tIntel Corporation\nDevice:\tDevice 7839\nSVendor:\tIntel Corporation\nSDevice:\tDevice 35cb\nRev:\t10\n\nSlot:\t0000:ff:0f.2\nClass:\tSystem peripheral\nVendor:\tIntel Corporation\nDevice:\tDevice 781f\nSVendor:\tIntel Corporation\nSDevice:\tDevice 35cb\nRev:\t10\n\nSlot:\t0000:ff:10.0\nClass:\tSystem peripheral\nVendor:\tIntel Corporation\nDevice:\tDevice 7833\nSVendor:\tIntel Corporation\nSDevice:\tDevice 35cb\nRev:\t10\nDriver:\tknl_uncore\n\nSlot:\t0000:ff:10.1\nClass:\tSystem peripheral\nVendor:\tIntel Corporation\nDevice:\tDevice 7839\nSVendor:\tIntel Corporation\nSDevice:\tDevice 35cb\nRev:\t10\n\nSlot:\t0000:ff:10.2\nClass:\tSystem peripheral\nVendor:\tIntel Corporation\nDevice:\tDevice 781f\nSVendor:\tIntel Corporation\nSDevice:\tDevice 35cb\nRev:\t10\n\nSlot:\t0000:ff:10.5\nClass:\tSystem peripheral\nVendor:\tIntel Corporation\nDevice:\tDevice 7848\nRev:\t10\n\nSlot:\t0000:ff:10.6\nClass:\tSystem peripheral\nVendor:\tIntel Corporation\nDevice:\tDevice 7848\nRev:\t10\n\nSlot:\t0000:ff:10.7\nClass:\tSystem peripheral\nVendor:\tIntel Corporation\nDevice:\tDevice 7848\nRev:\t10\n\nSlot:\t0000:ff:11.0\nClass:\tSystem peripheral\nVendor:\tIntel Corporation\nDevice:\tDevice 7833\nSVendor:\tIntel Corporation\nSDevice:\tDevice 35cb\nRev:\t10\nDriver:\tknl_uncore\n\nSlot:\t0000:ff:11.1\nClass:\tSystem peripheral\nVendor:\tIntel Corporation\nDevice:\tDevice 7839\nSVendor:\tIntel Corporation\nSDevice:\tDevice 35cb\nRev:\t10\n\nSlot:\t0000:ff:11.2\nClass:\tSystem peripheral\nVendor:\tIntel Corporation\nDevice:\tDevice 781f\nSVendor:\tIntel Corporation\nSDevice:\tDevice 35cb\nRev:\t10\n\nSlot:\t0000:ff:11.5\nClass:\tSystem peripheral\nVendor:\tIntel Corporation\nDevice:\tDevice 7849\nRev:\t10\n\nSlot:\t0000:ff:11.6\nClass:\tSystem peripheral\nVendor:\tIntel Corporation\nDevice:\tDevice 7849\nRev:\t10\n\nSlot:\t0000:ff:11.7\nClass:\tSystem peripheral\nVendor:\tIntel Corporation\nDevice:\tDevice 7849\nRev:\t10\n\nSlot:\t0000:ff:12.0\nClass:\tSystem peripheral\nVendor:\tIntel Corporation\nDevice:\tDevice 7833\nSVendor:\tIntel Corporation\nSDevice:\tDevice 35cb\nRev:\t10\nDriver:\tknl_uncore\n\nSlot:\t0000:ff:12.1\nClass:\tSystem peripheral\nVendor:\tIntel Corporation\nDevice:\tDevice 7839\nSVendor:\tIntel Corporation\nSDevice:\tDevice 35cb\nRev:\t10\n\nSlot:\t0000:ff:12.2\nClass:\tSystem peripheral\nVendor:\tIntel Corporation\nDevice:\tDevice 781f\nSVendor:\tIntel Corporation\nSDevice:\tDevice 35cb\nRev:\t10\n\nSlot:\t0000:ff:12.5\nClass:\tSystem peripheral\nVendor:\tIntel Corporation\nDevice:\tDevice 7848\nRev:\t10\n\nSlot:\t0000:ff:12.6\nClass:\tSystem peripheral\nVendor:\tIntel Corporation\nDevice:\tDevice 7848\nRev:\t10\n\nSlot:\t0000:ff:12.7\nClass:\tSystem peripheral\nVendor:\tIntel Corporation\nDevice:\tDevice 7848\nRev:\t10\n\nSlot:\t0000:ff:13.0\nClass:\tSystem peripheral\nVendor:\tIntel Corporation\nDevice:\tDevice 7833\nSVendor:\tIntel Corporation\nSDevice:\tDevice 35cb\nRev:\t10\nDriver:\tknl_uncore\n\nSlot:\t0000:ff:13.1\nClass:\tSystem peripheral\nVendor:\tIntel Corporation\nDevice:\tDevice 7839\nSVendor:\tIntel Corporation\nSDevice:\tDevice 35cb\nRev:\t10\n\nSlot:\t0000:ff:13.2\nClass:\tSystem peripheral\nVendor:\tIntel Corporation\nDevice:\tDevice 781f\nSVendor:\tIntel Corporation\nSDevice:\tDevice 35cb\nRev:\t10\n\nSlot:\t0000:ff:13.5\nClass:\tSystem peripheral\nVendor:\tIntel Corporation\nDevice:\tDevice 7849\nRev:\t10\n\nSlot:\t0000:ff:13.6\nClass:\tSystem peripheral\nVendor:\tIntel Corporation\nDevice:\tDevice 7849\nRev:\t10\n\nSlot:\t0000:ff:13.7\nClass:\tSystem peripheral\nVendor:\tIntel Corporation\nDevice:\tDevice 7849\nRev:\t10\n\nSlot:\t0000:ff:14.0\nClass:\tSystem peripheral\nVendor:\tIntel Corporation\nDevice:\tDevice 7833\nSVendor:\tIntel Corporation\nSDevice:\tDevice 35cb\nRev:\t10\nDriver:\tknl_uncore\n\nSlot:\t0000:ff:14.1\nClass:\tSystem peripheral\nVendor:\tIntel Corporation\nDevice:\tDevice 7839\nSVendor:\tIntel Corporation\nSDevice:\tDevice 35cb\nRev:\t10\n\nSlot:\t0000:ff:14.2\nClass:\tSystem peripheral\nVendor:\tIntel Corporation\nDevice:\tDevice 781f\nSVendor:\tIntel Corporation\nSDevice:\tDevice 35cb\nRev:\t10\n\nSlot:\t0000:ff:14.6\nClass:\tSystem peripheral\nVendor:\tIntel Corporation\nDevice:\tDevice 7845\nRev:\t10\n\nSlot:\t0000:ff:14.7\nClass:\tSystem peripheral\nVendor:\tIntel Corporation\nDevice:\tDevice 7846\nRev:\t10\n\nSlot:\t0000:ff:15.0\nClass:\tSystem peripheral\nVendor:\tIntel Corporation\nDevice:\tDevice 7833\nSVendor:\tIntel Corporation\nSDevice:\tDevice 35cb\nRev:\t10\nDriver:\tknl_uncore\n\nSlot:\t0000:ff:15.1\nClass:\tSystem peripheral\nVendor:\tIntel Corporation\nDevice:\tDevice 7839\nSVendor:\tIntel Corporation\nSDevice:\tDevice 35cb\nRev:\t10\n\nSlot:\t0000:ff:15.2\nClass:\tSystem peripheral\nVendor:\tIntel Corporation\nDevice:\tDevice 781f\nSVendor:\tIntel Corporation\nSDevice:\tDevice 35cb\nRev:\t10\n\nSlot:\t0000:ff:15.6\nClass:\tSystem peripheral\nVendor:\tIntel Corporation\nDevice:\tDevice 7845\nRev:\t10\n\nSlot:\t0000:ff:15.7\nClass:\tSystem peripheral\nVendor:\tIntel Corporation\nDevice:\tDevice 7847\nRev:\t10\n\nSlot:\t0000:ff:16.0\nClass:\tSystem peripheral\nVendor:\tIntel Corporation\nDevice:\tDevice 7833\nSVendor:\tIntel Corporation\nSDevice:\tDevice 35cb\nRev:\t10\nDriver:\tknl_uncore\n\nSlot:\t0000:ff:16.1\nClass:\tSystem peripheral\nVendor:\tIntel Corporation\nDevice:\tDevice 7839\nSVendor:\tIntel Corporation\nSDevice:\tDevice 35cb\nRev:\t10\n\nSlot:\t0000:ff:16.2\nClass:\tSystem peripheral\nVendor:\tIntel Corporation\nDevice:\tDevice 781f\nSVendor:\tIntel Corporation\nSDevice:\tDevice 35cb\nRev:\t10\n\nSlot:\t0000:ff:18.0\nClass:\tSystem peripheral\nVendor:\tIntel Corporation\nDevice:\tDevice 7831\nSVendor:\tIntel Corporation\nSDevice:\tDevice 35cb\nRev:\t10\n\nSlot:\t0000:ff:18.1\nClass:\tSystem peripheral\nVendor:\tIntel Corporation\nDevice:\tDevice 7837\nSVendor:\tIntel Corporation\nSDevice:\tDevice 35cb\nRev:\t10\n\nSlot:\t0000:ff:18.2\nClass:\tSystem peripheral\nVendor:\tIntel Corporation\nDevice:\tDevice 7835\nSVendor:\tIntel Corporation\nSDevice:\tDevice 35cb\nRev:\t10\nDriver:\tknl_uncore\n\nSlot:\t0000:ff:19.0\nClass:\tSystem peripheral\nVendor:\tIntel Corporation\nDevice:\tDevice 7831\nSVendor:\tIntel Corporation\nSDevice:\tDevice 35cb\nRev:\t10\n\nSlot:\t0000:ff:19.1\nClass:\tSystem peripheral\nVendor:\tIntel Corporation\nDevice:\tDevice 7837\nSVendor:\tIntel Corporation\nSDevice:\tDevice 35cb\nRev:\t10\n\nSlot:\t0000:ff:19.2\nClass:\tSystem peripheral\nVendor:\tIntel Corporation\nDevice:\tDevice 7835\nSVendor:\tIntel Corporation\nSDevice:\tDevice 35cb\nRev:\t10\nDriver:\tknl_uncore\n\nSlot:\t0000:ff:1a.0\nClass:\tSystem peripheral\nVendor:\tIntel Corporation\nDevice:\tDevice 7831\nSVendor:\tIntel Corporation\nSDevice:\tDevice 35cb\nRev:\t10\n\nSlot:\t0000:ff:1a.1\nClass:\tSystem peripheral\nVendor:\tIntel Corporation\nDevice:\tDevice 7837\nSVendor:\tIntel Corporation\nSDevice:\tDevice 35cb\nRev:\t10\n\nSlot:\t0000:ff:1a.2\nClass:\tSystem peripheral\nVendor:\tIntel Corporation\nDevice:\tDevice 7835\nSVendor:\tIntel Corporation\nSDevice:\tDevice 35cb\nRev:\t10\nDriver:\tknl_uncore\n\nSlot:\t0000:ff:1b.0\nClass:\tSystem peripheral\nVendor:\tIntel Corporation\nDevice:\tDevice 7831\nSVendor:\tIntel Corporation\nSDevice:\tDevice 35cb\nRev:\t10\n\nSlot:\t0000:ff:1b.1\nClass:\tSystem peripheral\nVendor:\tIntel Corporation\nDevice:\tDevice 7837\nSVendor:\tIntel Corporation\nSDevice:\tDevice 35cb\nRev:\t10\n\nSlot:\t0000:ff:1b.2\nClass:\tSystem peripheral\nVendor:\tIntel Corporation\nDevice:\tDevice 7835\nSVendor:\tIntel Corporation\nSDevice:\tDevice 35cb\nRev:\t10\nDriver:\tknl_uncore\n\nSlot:\t0000:ff:1c.0\nClass:\tSystem peripheral\nVendor:\tIntel Corporation\nDevice:\tDevice 7831\nSVendor:\tIntel Corporation\nSDevice:\tDevice 35cb\nRev:\t10\n\nSlot:\t0000:ff:1c.1\nClass:\tSystem peripheral\nVendor:\tIntel Corporation\nDevice:\tDevice 7837\nSVendor:\tIntel Corporation\nSDevice:\tDevice 35cb\nRev:\t10\n\nSlot:\t0000:ff:1c.2\nClass:\tSystem peripheral\nVendor:\tIntel Corporation\nDevice:\tDevice 7835\nSVendor:\tIntel Corporation\nSDevice:\tDevice 35cb\nRev:\t10\nDriver:\tknl_uncore\n\nSlot:\t0000:ff:1d.0\nClass:\tSystem peripheral\nVendor:\tIntel Corporation\nDevice:\tDevice 7831\nSVendor:\tIntel Corporation\nSDevice:\tDevice 35cb\nRev:\t10\n\nSlot:\t0000:ff:1d.1\nClass:\tSystem peripheral\nVendor:\tIntel Corporation\nDevice:\tDevice 7837\nSVendor:\tIntel Corporation\nSDevice:\tDevice 35cb\nRev:\t10\n\nSlot:\t0000:ff:1d.2\nClass:\tSystem peripheral\nVendor:\tIntel Corporation\nDevice:\tDevice 7835\nSVendor:\tIntel Corporation\nSDevice:\tDevice 35cb\nRev:\t10\nDriver:\tknl_uncore\n\nSlot:\t0000:ff:1e.0\nClass:\tSystem peripheral\nVendor:\tIntel Corporation\nDevice:\tDevice 7831\nSVendor:\tIntel Corporation\nSDevice:\tDevice 35cb\nRev:\t10\n\nSlot:\t0000:ff:1e.1\nClass:\tSystem peripheral\nVendor:\tIntel Corporation\nDevice:\tDevice 7837\nSVendor:\tIntel Corporation\nSDevice:\tDevice 35cb\nRev:\t10\n\nSlot:\t0000:ff:1e.2\nClass:\tSystem peripheral\nVendor:\tIntel Corporation\nDevice:\tDevice 7835\nSVendor:\tIntel Corporation\nSDevice:\tDevice 35cb\nRev:\t10\nDriver:\tknl_uncore\n\nSlot:\t0000:ff:1f.0\nClass:\tSystem peripheral\nVendor:\tIntel Corporation\nDevice:\tDevice 7831\nSVendor:\tIntel Corporation\nSDevice:\tDevice 35cb\nRev:\t10\n\nSlot:\t0000:ff:1f.1\nClass:\tSystem peripheral\nVendor:\tIntel Corporation\nDevice:\tDevice 7837\nSVendor:\tIntel Corporation\nSDevice:\tDevice 35cb\nRev:\t10\n\nSlot:\t0000:ff:1f.2\nClass:\tSystem peripheral\nVendor:\tIntel Corporation\nDevice:\tDevice 7835\nSVendor:\tIntel Corporation\nSDevice:\tDevice 35cb\nRev:\t10\nDriver:\tknl_uncore\n\n\n'
p68
sS'numactl --hardware'
p69
S'available: 2 nodes (0-1)\nnode 0 cpus: 0 1 2 3 4 5 6 7 8 9 10 11 12 13 14 15 16 17 18 19 20 21 22 23 24 25 26 27 28 29 30 31 32 33 34 35 36 37 38 39 40 41 42 43 44 45 46 47 48 49 50 51 52 53 54 55 56 57 58 59 60 61 62 63 64 65 66 67 68 69 70 71 72 73 74 75 76 77 78 79 80 81 82 83 84 85 86 87 88 89 90 91 92 93 94 95 96 97 98 99 100 101 102 103 104 105 106 107 108 109 110 111 112 113 114 115 116 117 118 119 120 121 122 123 124 125 126 127 128 129 130 131 132 133 134 135 136 137 138 139 140 141 142 143 144 145 146 147 148 149 150 151 152 153 154 155 156 157 158 159 160 161 162 163 164 165 166 167 168 169 170 171 172 173 174 175 176 177 178 179 180 181 182 183 184 185 186 187 188 189 190 191 192 193 194 195 196 197 198 199 200 201 202 203 204 205 206 207 208 209 210 211 212 213 214 215 216 217 218 219 220 221 222 223 224 225 226 227 228 229 230 231 232 233 234 235 236 237 238 239 240 241 242 243 244 245 246 247 248 249 250 251 252 253 254 255 256 257 258 259 260 261 262 263 264 265 266 267 268 269 270 271\nnode 0 size: 96621 MB\nnode 0 free: 95604 MB\nnode 1 cpus:\nnode 1 size: 16125 MB\nnode 1 free: 15994 MB\nnode distances:\nnode   0   1 \n  0:  10  31 \n  1:  31  10 \n\n'
p70
sS'dmidecode -t slot'
p71
S'# dmidecode 3.0\nScanning /dev/mem for entry point.\n\n/sys/firmware/dmi/tables/smbios_entry_point: Permission denied\n/dev/mem: Permission denied\n'
p72
sS'cat /proc/cmdline'
p73
S'BOOT_IMAGE=/boot/vmlinuz-4.4.59-92.17-default root=UUID=7269a146-8a5a-47e6-af8e-d40335ac1e72 crashkernel=auto intel_iommu=on hugepagesz=2048k hugepages=0 hugepagesz=1048576k hugepages=0 splash=silent quiet showopts resume=/dev/sda1 splash=silent quiet showopts\n\n'
p74
sS'uname --hardware-platform'
p75
S'x86_64\n\n'
p76
sS'dmidecode -t memory'
p77
S'# dmidecode 3.0\nScanning /dev/mem for entry point.\n\n/sys/firmware/dmi/tables/smbios_entry_point: Permission denied\n/dev/mem: Permission denied\n'
p78
sS'uname --operating-system'
p79
S'GNU/Linux\n\n'
p80
sS'dmidecode -t cache'
p81
S'# dmidecode 3.0\nScanning /dev/mem for entry point.\n\n/sys/firmware/dmi/tables/smbios_entry_point: Permission denied\n/dev/mem: Permission denied\n'
p82
sS'dmidecode -t connector'
p83
S'# dmidecode 3.0\nScanning /dev/mem for entry point.\n\n/sys/firmware/dmi/tables/smbios_entry_point: Permission denied\n/dev/mem: Permission denied\n'
p84
sS'dmidecode -t system'
p85
S'# dmidecode 3.0\nScanning /dev/mem for entry point.\n\n/sys/firmware/dmi/tables/smbios_entry_point: Permission denied\n/dev/mem: Permission denied\n'
p86
sS'uname --nodename'
p87
S'Perf-KNL-D-B0-34tiles-8MCDRAM-03\n\n'
p88
ssbsbsS'_xName'
p89
(dp90
S'linpack'
p91
S'matrix_size'
p92
sS'stream'
p93
S'omp_num_threads'
p94
sS'libxsmm_conv'
p95
g94
sS'dgemm'
p96
S'K_size'
p97
sS'hpcg'
p98
S'problem_size'
p99
sS'hplinpack'
p100
g99
sS'sgemm'
p101
g97
sS'fio'
p102
S'size'
p103
sS'mkl_conv'
p104
g94
ssS'_store'
p105
(dp106
g91
(dp107
S'local__mcdram_7250_SuSE-12_micperf-1.6.0_local_optimal'
p108
(lp109
g1
(cmicp.stats
Stats
p110
g3
NtRp111
(dp112
S'params'
p113
g1
(cmicp.params
Params
p114
g3
NtRp115
(dp116
S'_paramNames'
p117
(lp118
g94
ag92
aS'num_rep'
p119
aS'lead_dim'
p120
asS'_defaults'
p121
(dp122
g94
S'68'
p123
sg120
S'36928'
p124
sg92
S'36864'
p125
sg119
S'3'
ssS'_params'
p126
(dp127
g94
S'68'
p128
sg120
S'36928'
p129
sg92
S'36864'
p130
sg119
S'3'
ssS'_paramQuiet'
p131
(lp132
g94
asbsS'perf'
p133
(dp134
S'Computation.Avg'
p135
(dp136
S'units'
p137
S'GFlops'
p138
sS'rollup'
p139
I01
sS'value'
p140
S'1745.8586'
p141
sssS'desc'
p142
S'36864 x 36864 MKL DP LINPACK with 68 threads and 3 iterations'
p143
sbassg93
(dp144
S'local__mcdram_7250_SuSE-12_micperf-1.6.0_local_optimal'
p145
(lp146
g1
(g110
g3
NtRp147
(dp148
g113
g1
(g114
g3
NtRp149
(dp150
g117
(lp151
g94
asg121
(dp152
g94
S'68'
p153
ssg126
(dp154
g94
S'59'
p155
ssg131
(lp156
g94
asbsg133
(dp157
S'Task.Bandwidth'
p158
(dp159
g137
S'GB/s'
p160
sg139
I01
sg140
S'485.5997'
p161
sssg142
S'STREAM version $Revision: 5.10 $ with 59 threads'
p162
sbag1
(g110
g3
NtRp163
(dp164
g113
g1
(g114
g3
NtRp165
(dp166
g117
(lp167
g94
asg121
(dp168
g94
g153
ssg126
(dp169
g94
S'60'
p170
ssg131
(lp171
g94
asbsg133
(dp172
g158
(dp173
g137
g160
sg139
I01
sg140
S'481.1749'
p174
sssg142
S'STREAM version $Revision: 5.10 $ with 60 threads'
p175
sbag1
(g110
g3
NtRp176
(dp177
g113
g1
(g114
g3
NtRp178
(dp179
g117
(lp180
g94
asg121
(dp181
g94
g153
ssg126
(dp182
g94
S'61'
p183
ssg131
(lp184
g94
asbsg133
(dp185
g158
(dp186
g137
g160
sg139
I01
sg140
S'486.9946'
p187
sssg142
S'STREAM version $Revision: 5.10 $ with 61 threads'
p188
sbag1
(g110
g3
NtRp189
(dp190
g113
g1
(g114
g3
NtRp191
(dp192
g117
(lp193
g94
asg121
(dp194
g94
g153
ssg126
(dp195
g94
S'62'
p196
ssg131
(lp197
g94
asbsg133
(dp198
g158
(dp199
g137
g160
sg139
I01
sg140
S'486.076'
p200
sssg142
S'STREAM version $Revision: 5.10 $ with 62 threads'
p201
sbag1
(g110
g3
NtRp202
(dp203
g113
g1
(g114
g3
NtRp204
(dp205
g117
(lp206
g94
asg121
(dp207
g94
g153
ssg126
(dp208
g94
S'63'
p209
ssg131
(lp210
g94
asbsg133
(dp211
g158
(dp212
g137
g160
sg139
I01
sg140
S'484.5405'
p213
sssg142
S'STREAM version $Revision: 5.10 $ with 63 threads'
p214
sbag1
(g110
g3
NtRp215
(dp216
g113
g1
(g114
g3
NtRp217
(dp218
g117
(lp219
g94
asg121
(dp220
g94
g153
ssg126
(dp221
g94
S'64'
p222
ssg131
(lp223
g94
asbsg133
(dp224
g158
(dp225
g137
g160
sg139
I01
sg140
S'482.3999'
p226
sssg142
S'STREAM version $Revision: 5.10 $ with 64 threads'
p227
sbag1
(g110
g3
NtRp228
(dp229
g113
g1
(g114
g3
NtRp230
(dp231
g117
(lp232
g94
asg121
(dp233
g94
g153
ssg126
(dp234
g94
S'65'
p235
ssg131
(lp236
g94
asbsg133
(dp237
g158
(dp238
g137
g160
sg139
I01
sg140
S'480.4572'
p239
sssg142
S'STREAM version $Revision: 5.10 $ with 65 threads'
p240
sbag1
(g110
g3
NtRp241
(dp242
g113
g1
(g114
g3
NtRp243
(dp244
g117
(lp245
g94
asg121
(dp246
g94
g153
ssg126
(dp247
g94
S'66'
p248
ssg131
(lp249
g94
asbsg133
(dp250
g158
(dp251
g137
g160
sg139
I01
sg140
S'479.0995'
p252
sssg142
S'STREAM version $Revision: 5.10 $ with 66 threads'
p253
sbag1
(g110
g3
NtRp254
(dp255
g113
g1
(g114
g3
NtRp256
(dp257
g117
(lp258
g94
asg121
(dp259
g94
g153
ssg126
(dp260
g94
S'67'
p261
ssg131
(lp262
g94
asbsg133
(dp263
g158
(dp264
g137
g160
sg139
I01
sg140
S'475.2472'
p265
sssg142
S'STREAM version $Revision: 5.10 $ with 67 threads'
p266
sbag1
(g110
g3
NtRp267
(dp268
g113
g1
(g114
g3
NtRp269
(dp270
g117
(lp271
g94
asg121
(dp272
g94
g153
ssg126
(dp273
g94
S'68'
p274
ssg131
(lp275
g94
asbsg133
(dp276
g158
(dp277
g137
g160
sg139
I01
sg140
S'475.107'
p278
sssg142
S'STREAM version $Revision: 5.10 $ with 68 threads'
p279
sbassg95
(dp280
S'local__mcdram_7250_SuSE-12_micperf-1.6.0_local_optimal'
p281
(lp282
g1
(g110
g3
NtRp283
(dp284
g113
g1
(g114
g3
NtRp285
(dp286
g117
(lp287
g94
aS'iters'
p288
aS'inpWidth'
p289
aS'inpHeight'
p290
aS'nImg'
p291
aS'nIfm'
p292
aS'nOfm'
p293
aS'kw'
p294
aS'kh'
p295
aS'pad'
p296
aS'stride'
p297
asg121
(dp298
g292
S'3'
sg94
S'68'
p299
sg295
S'7'
sg291
S'16'
p300
sg297
S'2'
sg293
S'64'
p301
sg288
S'100'
p302
sg289
S'224'
p303
sg290
S'224'
p304
sg294
S'7'
sg296
S'3'
ssg126
(dp305
g292
S'3'
sg297
S'2'
sg94
g299
sg295
S'7'
sg291
S'16'
p306
sg288
S'100'
p307
sg293
S'64'
p308
sg294
S'7'
sg289
S'224'
p309
sg290
S'224'
p310
sg296
S'3'
ssg131
(lp311
g94
asbsg133
(dp312
S'Computation.Avg.NHWC/custom-Storage.FWD'
p313
(dp314
g137
g138
sg139
I01
sg140
F2437.0999999999999
ssS'Computation.Avg.NHWC/custom-Storage.UPD'
p315
(dp316
g137
g138
sg139
I01
sg140
F990.71000000000004
ssS'Computation.Avg.custom-Storage.FWD'
p317
(dp318
g137
g138
sg139
I01
sg140
F2717.0999999999999
ssS'Computation.Avg.custom-Storage.UPD'
p319
(dp320
g137
g138
sg139
I01
sg140
F871.78999999999996
ssS'Computation.Avg.NHWC/RSCK-Storage.UPD'
p321
(dp322
g137
g138
sg139
I01
sg140
F999.12
ssS'Computation.Avg.NHWC/RSCK-Storage.FWD'
p323
(dp324
g137
g138
sg139
I01
sg140
F2344.6999999999998
sssg142
S'W=224 H=224 C=3 N=16 K=64 R=7 S=7'
p325
sbassg96
(dp326
S'local__mcdram_7250_SuSE-12_micperf-1.6.0_local_optimal'
p327
(lp328
g1
(g110
g3
NtRp329
(dp330
g113
g1
(g114
g3
NtRp331
(dp332
g117
(lp333
S'i_num_rep'
p334
ag97
aS'n_num_thread'
p335
aS'm_mode'
p336
aS'N_size'
p337
aS'M_size'
p338
asg121
(dp339
g337
S'7680'
p340
sg334
S'3'
sg97
S'7680'
p341
sg335
S'0'
sg336
S'NN'
p342
sg338
S'7680'
p343
ssg126
(dp344
g334
S'3'
sg97
S'7680'
p345
sg335
S'0'
sg336
g342
sg337
S'7680'
p346
sg338
S'7680'
p347
ssg131
(lp348
sbsg133
(dp349
S'Task.Computation.Avg'
p350
(dp351
g137
g138
sg139
I01
sg140
S'2062.41'
p352
sssg142
S'(M=7680, N=7680, K=7680) MKL DGEMM with 68 (autodetected) threads and 3 iterations'
p353
sbassg98
(dp354
S'local__mcdram_7250_SuSE-12_micperf-1.6.0_local_optimal'
p355
(lp356
g1
(g110
g3
NtRp357
(dp358
g113
g1
(g114
g3
NtRp359
(dp360
g117
(lp361
g99
aS'time'
p362
ag94
asg121
(dp363
g94
S'32'
p364
sg362
S'60'
p365
sg99
S'128'
p366
ssg126
(dp367
g94
S'32'
p368
sg362
S'60'
p369
sg99
S'128'
p370
ssg131
(lp371
sbsg133
(dp372
S'Computation.Avg'
p373
(dp374
g137
g138
sg139
I01
sg140
S'60.1308'
p375
sssg142
S'hpcg Local Dimensions nx=128, ny=128, nz=128, MPI ranks 4, threads per rank 32'
p376
sbassg100
(dp377
S'local__mcdram_7250_SuSE-12_micperf-1.6.0_local_optimal'
p378
(lp379
g1
(g110
g3
NtRp380
(dp381
g113
g1
(g114
g3
NtRp382
(dp383
g117
(lp384
g99
aS'block_size'
p385
aS'hpl_numthreads'
p386
asg121
(dp387
g386
S'68'
p388
sg385
S'336'
p389
sg99
S'100000'
p390
ssg126
(dp391
g386
S'68'
p392
sg385
S'336'
p393
sg99
S'100000'
p394
ssg131
(lp395
g386
asbsg133
(dp396
S'Computation.Avg'
p397
(dp398
g137
g138
sg139
I01
sg140
F1768.8399999999999
sssg142
S'HPLinpack problem size 100000 block size 336'
p399
sbassg101
(dp400
S'local__mcdram_7250_SuSE-12_micperf-1.6.0_local_optimal'
p401
(lp402
g1
(g110
g3
NtRp403
(dp404
g113
g1
(g114
g3
NtRp405
(dp406
g117
(lp407
g334
ag97
ag335
ag336
ag337
ag338
asg121
(dp408
g337
S'-1'
p409
sg334
S'3'
sg97
g409
sg335
S'228'
p410
sg336
g342
sg338
g409
ssg126
(dp411
g334
S'3'
sg97
S'15872'
p412
sg335
S'0'
sg336
g342
sg337
S'15872'
p413
sg338
S'15872'
p414
ssg131
(lp415
sbsg133
(dp416
g350
(dp417
g137
g138
sg139
I01
sg140
S'4326.91'
p418
sssg142
S'(M=15872, N=15872, K=15872) MKL SGEMM with 68 (autodetected) threads and 3 iterations'
p419
sbassg102
(dp420
S'local__mcdram_7250_SuSE-12_micperf-1.6.0_local_optimal'
p421
(lp422
g1
(g110
g3
NtRp423
(dp424
g113
g1
(g114
g3
NtRp425
(dp426
g117
(lp427
g103
aS'numjobs'
p428
asg121
(dp429
g103
S'16MB'
p430
sg428
S'10'
p431
ssg126
(dp432
g428
S'10'
p433
sg103
S'16MB'
p434
ssg131
(lp435
sbsg133
(dp436
S'Computation.Avg'
p437
(dp438
g137
S'kB/s'
p439
sg139
I01
sg140
I2019
sssg142
Vfio-2.1.13; Test of paralell read from multiple files; total size: 163840 kB
p440
sbassg104
(dp441
S'local__mcdram_7250_SuSE-12_micperf-1.6.0_local_optimal'
p442
(lp443
g1
(g110
g3
NtRp444
(dp445
g113
g1
(g114
g3
NtRp446
(dp447
g117
(lp448
g94
aS'with_padding'
p449
aS'output'
p450
aS'groups'
p451
ag291
ag289
ag290
ag292
ag293
ag294
ag295
ag297
ag296
ag288
asg121
(dp452
g292
S'3'
sg288
S'100'
p453
sg295
S'7'
sg94
S'68'
p454
sg449
S'0'
sg291
S'16'
p455
sg297
S'2'
sg293
S'64'
p456
sg294
S'7'
sg289
S'224'
p457
sg451
S'1'
sg290
S'224'
p458
sg450
S'--original-output'
p459
sg296
S'3'
ssg126
(dp460
g292
S'3'
sg288
S'100'
p461
sg94
g454
sg295
S'7'
sg449
S'0'
sg291
S'16'
p462
sg297
S'2'
sg293
S'64'
p463
sg294
S'7'
sg289
S'224'
p464
sg451
S'1'
sg290
S'224'
p465
sg450
g459
sg296
S'3'
ssg131
(lp466
g94
asbsg133
(dp467
S'Computation.Avg.FWD'
p468
(dp469
g137
g138
sg139
I01
sg140
S'2800.22'
p470
ssS'Computation.Avg.BWD_F'
p471
(dp472
g137
g138
sg139
I01
sg140
S'2653.46'
p473
ssS'Computation.Avg.BWD_D'
p474
(dp475
g137
g138
sg139
I01
sg140
S'228.64'
p476
sssg142
S'W=224, H=224, C=3, N=16, K=64, R=7, S=7'
p477
sbasssS'tag'
p478
S'mcdram_7250_SuSE-12_micperf-1.6.0_local_optimal'
p479
sS'_extended'
p480
I00
sS'runArgs'
p481
(dp482
S'compResult'
p483
S''
sS'verbLevel'
p484
S'1'
sS'paramCat'
p485
S'optimal'
p486
sS'sudo'
p487
I00
sS'logFileName'
p488
NsS'kernelPlugin'
p489
S''
sg478
S''
sS'devIdx'
p490
S'-1'
p491
sS'kernelNames'
p492
S'all'
p493
sS'statistical_model'
p494
(dp495
sS'offMethod'
p496
S'local'
p497
sS'margin'
p498
S''
sS'kernelArgs'
p499
S''
sS'outDir'
p500
S'.'
ssb.