ccopy_reg
_reconstructor
p1
(cmicp.stats
StatsCollection
p2
c__builtin__
object
p3
NtRp4
(dp5
S'info'
p6
g1
(cmicp.info
Info
p7
g3
NtRp8
(dp9
S'_device'
p10
g1
(cmicp.info
InfoKNXSB
p11
g3
NtRp12
(dp13
S'_micinfoDict'
p14
(dp15
S'selfboot'
p16
(dp17
S'MCDRAM Size'
p18
S'16125 MB'
p19
sS'CPU Model Name'
p20
S'Intel(R) Xeon Phi(TM) CPU 7250 @ 1.40GHz'
p21
sS'CPU Family'
p22
S'6'
sS'OS Version'
p23
S'4.4.59-92.17-default\n'
p24
sS'CPU Stepping'
p25
S'1'
sS'Total No of Active Cores'
p26
S'68'
p27
sS'micperf Version'
p28
S'1.6.0'
p29
sS'CPU Model'
p30
S'87'
p31
sS'CPU Speed'
p32
S'1677.777'
p33
sS'Host OS'
p34
S'gnu/linux\n'
p35
sS'Vendor ID'
p36
S'GenuineIntel'
p37
sS'Host Physical Memory'
p38
S'112747 MB'
p39
sssS'_devIP'
p40
(dp41
sS'_devIdx'
p42
I-1
sS'_nodes_with_cpus'
p43
I1
sS'_is_mcdram_available'
p44
I01
sS'_commandDict'
p45
(dp46
S'dmidecode -t processor'
p47
S'# dmidecode 3.0\nScanning /dev/mem for entry point.\n\n/sys/firmware/dmi/tables/smbios_entry_point: Permission denied\n/dev/mem: Permission denied\n'
p48
sS'uname --processor'
p49
S'x86_64\n\n'
p50
sS'dmidecode -t baseboard'
p51
S'# dmidecode 3.0\nScanning /dev/mem for entry point.\n\n/sys/firmware/dmi/tables/smbios_entry_point: Permission denied\n/dev/mem: Permission denied\n'
p52
sS'env'
p53
S'BERTA_BUILD_COMMENT=XPPSL-CI-1.6.0.3662\nBERTA_OS=Linux-knl-sles12sp2-201707111508\nSHELL=/bin/bash\nBERTA_TMP_DIR=/home/berta/berta/tmp\nUSER=berta\nBERTA_MACHINE_NAME=Perf-KNL-D-B0-34tiles-8MCDRAM-03\nPATH=/opt/mpss_toolchains/composer/composer_xe_2018.0/compilers_and_libraries_2018.0.128/linux/bin/intel64:/opt/mpss_toolchains/composer/composer_xe_2018.0/compilers_and_libraries_2018.0.128/linux/mpi/intel64/bin:/usr/local/sbin:/usr/local/bin:/usr/sbin:/usr/bin:/sbin:/bin:/usr/share/mpss/test/micperf-pt:/usr/share/mpss/test/micperf-pt:/usr/share/mpss/test/micperf-pt\n_=/usr/bin/env\nPWD=/home/berta/berta/var/tasks/1439616\nSHLVL=4\nHOME=/home/berta\nBERTA_VAR_DIR=/home/berta/berta/var\nBERTA_MACHINES_GROUP_NAME=Perf-KNL-D-MIC-68-Cores-7250\nLOGNAME=berta\nPYTHONPATH=/home/berta/berta\nMY_IP_TO_BERTA=10.54.135.222\nLC_CTYPE=en_US.UTF-8\nDISPLAY=:1\nBERTA_PRODUCT=mic_tool\nBERTA_BOOTFILE=agent\nMKLROOT=/opt/mpss_toolchains/composer/composer_xe_2018.0/compilers_and_libraries_2018.0.128/linux/mkl\nMANPATH=/opt/mpss_toolchains/composer/composer_xe_2018.0/man/common:/opt/mpss_toolchains/composer/composer_xe_2018.0/compilers_and_libraries_2018.0.128/linux/mpi/man:/opt/mpss_toolchains/composer/composer_xe_2018.0/documentation_2018/en/debugger//gdb-ia/man/:/opt/mpss_toolchains/composer/composer_xe_2018.0/documentation_2018/en/debugger//gdb-igfx/man/:/usr/local/man:/usr/share/man:\nINTEL_LICENSE_FILE=/opt/mpss_toolchains/composer/composer_xe_2018.0/compilers_and_libraries_2018.0.128/linux/licenses:/opt/intel/licenses:/home/berta/intel/licenses\nIPPROOT=/opt/mpss_toolchains/composer/composer_xe_2018.0/compilers_and_libraries_2018.0.128/linux/ipp\nGDBSERVER_MIC=/opt/mpss_toolchains/composer/composer_xe_2018.0/debugger_2018/gdb/targets/intel64/x200/bin/gdbserver\nLIBRARY_PATH=/opt/mpss_toolchains/composer/composer_xe_2018.0/compilers_and_libraries_2018.0.128/linux/ipp/lib/intel64:/opt/mpss_toolchains/composer/composer_xe_2018.0/compilers_and_libraries_2018.0.128/linux/compiler/lib/intel64_lin:/opt/mpss_toolchains/composer/composer_xe_2018.0/compilers_and_libraries_2018.0.128/linux/mkl/lib/intel64_lin:/opt/mpss_toolchains/composer/composer_xe_2018.0/compilers_and_libraries_2018.0.128/linux/tbb/lib/intel64/gcc4.7:/opt/mpss_toolchains/composer/composer_xe_2018.0/compilers_and_libraries_2018.0.128/linux/tbb/lib/intel64/gcc4.7:/opt/mpss_toolchains/composer/composer_xe_2018.0/compilers_and_libraries_2018.0.128/linux/daal/lib/intel64_lin:/opt/mpss_toolchains/composer/composer_xe_2018.0/compilers_and_libraries_2018.0.128/linux/daal/../tbb/lib/intel64_lin/gcc4.4\nLD_LIBRARY_PATH=/opt/mpss_toolchains/composer/composer_xe_2018.0/compilers_and_libraries_2018.0.128/linux/compiler/lib/intel64:/opt/mpss_toolchains/composer/composer_xe_2018.0/compilers_and_libraries_2018.0.128/linux/compiler/lib/intel64_lin:/opt/mpss_toolchains/composer/composer_xe_2018.0/compilers_and_libraries_2018.0.128/linux/mpi/intel64/lib:/opt/mpss_toolchains/composer/composer_xe_2018.0/compilers_and_libraries_2018.0.128/linux/mpi/mic/lib:/opt/mpss_toolchains/composer/composer_xe_2018.0/compilers_and_libraries_2018.0.128/linux/ipp/lib/intel64:/opt/mpss_toolchains/composer/composer_xe_2018.0/compilers_and_libraries_2018.0.128/linux/compiler/lib/intel64_lin:/opt/mpss_toolchains/composer/composer_xe_2018.0/compilers_and_libraries_2018.0.128/linux/mkl/lib/intel64_lin:/opt/mpss_toolchains/composer/composer_xe_2018.0/compilers_and_libraries_2018.0.128/linux/tbb/lib/intel64/gcc4.7:/opt/mpss_toolchains/composer/composer_xe_2018.0/compilers_and_libraries_2018.0.128/linux/tbb/lib/intel64/gcc4.7:/opt/mpss_toolchains/composer/composer_xe_2018.0/debugger_2018/iga/lib:/opt/mpss_toolchains/composer/composer_xe_2018.0/debugger_2018/libipt/intel64/lib:/opt/mpss_toolchains/composer/composer_xe_2018.0/compilers_and_libraries_2018.0.128/linux/daal/lib/intel64_lin:/opt/mpss_toolchains/composer/composer_xe_2018.0/compilers_and_libraries_2018.0.128/linux/daal/../tbb/lib/intel64_lin/gcc4.4\nPSTLROOT=/opt/mpss_toolchains/composer/composer_xe_2018.0/compilers_and_libraries_2018.0.128/linux/pstl\nCPATH=/opt/mpss_toolchains/composer/composer_xe_2018.0/compilers_and_libraries_2018.0.128/linux/ipp/include:/opt/mpss_toolchains/composer/composer_xe_2018.0/compilers_and_libraries_2018.0.128/linux/mkl/include:/opt/mpss_toolchains/composer/composer_xe_2018.0/compilers_and_libraries_2018.0.128/linux/pstl/include:/opt/mpss_toolchains/composer/composer_xe_2018.0/compilers_and_libraries_2018.0.128/linux/tbb/include:/opt/mpss_toolchains/composer/composer_xe_2018.0/compilers_and_libraries_2018.0.128/linux/tbb/include:/opt/mpss_toolchains/composer/composer_xe_2018.0/compilers_and_libraries_2018.0.128/linux/daal/include\nNLSPATH=/opt/mpss_toolchains/composer/composer_xe_2018.0/compilers_and_libraries_2018.0.128/linux/compiler/lib/intel64/locale/%l_%t/%N:/opt/mpss_toolchains/composer/composer_xe_2018.0/compilers_and_libraries_2018.0.128/linux/mkl/lib/intel64_lin/locale/%l_%t/%N:/opt/mpss_toolchains/composer/composer_xe_2018.0/debugger_2018/gdb/intel64/share/locale/%l_%t/%N\nTBBROOT=/opt/mpss_toolchains/composer/composer_xe_2018.0/compilers_and_libraries_2018.0.128/linux/tbb\nGDB_CROSS=/opt/mpss_toolchains/composer/composer_xe_2018.0/debugger_2018/gdb/intel64/bin/gdb-ia\nDAALROOT=/opt/mpss_toolchains/composer/composer_xe_2018.0/compilers_and_libraries_2018.0.128/linux/daal\nMPM_LAUNCHER=/opt/mpss_toolchains/composer/composer_xe_2018.0/debugger_2018/mpm/mic/bin/start_mpm.sh\nINTEL_PYTHONHOME=/opt/mpss_toolchains/composer/composer_xe_2018.0/debugger_2018/python/intel64/\nCLASSPATH=/opt/mpss_toolchains/composer/composer_xe_2018.0/compilers_and_libraries_2018.0.128/linux/mpi/intel64/lib/mpi.jar:/opt/mpss_toolchains/composer/composer_xe_2018.0/compilers_and_libraries_2018.0.128/linux/daal/lib/daal.jar\nINFOPATH=/opt/mpss_toolchains/composer/composer_xe_2018.0/documentation_2018/en/debugger//gdb-ia/info/:/opt/mpss_toolchains/composer/composer_xe_2018.0/documentation_2018/en/debugger//gdb-igfx/info/\nI_MPI_ROOT=/opt/mpss_toolchains/composer/composer_xe_2018.0/compilers_and_libraries_2018.0.128/linux/mpi\n\n'
p54
sS'uname --machine'
p55
S'x86_64\n\n'
p56
sS'uname --kernel-version'
p57
S'#1 SMP Thu Apr 6 14:16:09 UTC 2017 (7bc489d)\n\n'
p58
sS'uname --kernel-release'
p59
S'4.4.59-92.17-default\n\n'
p60
sS'dmidecode -t chassis'
p61
S'# dmidecode 3.0\nScanning /dev/mem for entry point.\n\n/sys/firmware/dmi/tables/smbios_entry_point: Permission denied\n/dev/mem: Permission denied\n'
p62
sS'uname --kernel-name'
p63
S'Linux\n\n'
p64
sS'dmidecode -t bios'
p65
S'# dmidecode 3.0\nScanning /dev/mem for entry point.\n\n/sys/firmware/dmi/tables/smbios_entry_point: Permission denied\n/dev/mem: Permission denied\n'
p66
sS'lspci -mmvvkD'
p67
S'Slot:\t0000:00:00.0\nClass:\tHost bridge\nVendor:\tIntel Corporation\nDevice:\tDevice 783e\nSVendor:\tIntel Corporation\nSDevice:\tDevice 35cb\nRev:\t10\n\nSlot:\t0000:00:05.0\nClass:\tSystem peripheral\nVendor:\tIntel Corporation\nDevice:\tDevice 7810\nSVendor:\tIntel Corporation\nSDevice:\tDevice 35cb\nRev:\t10\n\nSlot:\t0000:00:05.2\nClass:\tSystem peripheral\nVendor:\tIntel Corporation\nDevice:\tDevice 7812\nSVendor:\tIntel Corporation\nSDevice:\tDevice 35cb\nRev:\t10\n\nSlot:\t0000:00:05.4\nClass:\tPIC\nVendor:\tIntel Corporation\nDevice:\tDevice 7813\nSVendor:\tIntel Corporation\nSDevice:\tDevice 35cb\nRev:\t10\nProgIf:\t20\n\nSlot:\t0000:00:05.6\nClass:\tPerformance counters\nVendor:\tIntel Corporation\nDevice:\tDevice 7814\nSVendor:\tIntel Corporation\nSDevice:\tDevice 35cb\nRev:\t10\nDriver:\tknl_uncore\n\nSlot:\t0000:00:08.0\nClass:\tSystem peripheral\nVendor:\tIntel Corporation\nDevice:\tDevice 781a\nSVendor:\tIntel Corporation\nSDevice:\tDevice 35cb\nRev:\t10\n\nSlot:\t0000:00:08.1\nClass:\tPerformance counters\nVendor:\tIntel Corporation\nDevice:\tDevice 781b\nSVendor:\tIntel Corporation\nSDevice:\tDevice 35cb\nRev:\t10\n\nSlot:\t0000:00:08.2\nClass:\tSystem peripheral\nVendor:\tIntel Corporation\nDevice:\tDevice 781c\nSVendor:\tIntel Corporation\nSDevice:\tDevice 35cb\nRev:\t10\n\nSlot:\t0000:00:11.0\nClass:\tUnassigned class [ff00]\nVendor:\tIntel Corporation\nDevice:\tC610/X99 series chipset SPSR\nSVendor:\tIntel Corporation\nSDevice:\tDevice 0000\nRev:\t05\n\nSlot:\t0000:00:11.4\nClass:\tSATA controller\nVendor:\tIntel Corporation\nDevice:\tC610/X99 series chipset sSATA Controller [AHCI mode]\nSVendor:\tIntel Corporation\nSDevice:\tDevice 35cb\nRev:\t05\nProgIf:\t01\nDriver:\tahci\nModule:\tahci\n\nSlot:\t0000:00:14.0\nClass:\tUSB controller\nVendor:\tIntel Corporation\nDevice:\tC610/X99 series chipset USB xHCI Host Controller\nSVendor:\tIntel Corporation\nSDevice:\tDevice 35cb\nRev:\t05\nProgIf:\t30\nDriver:\txhci_hcd\nModule:\txhci_pci\n\nSlot:\t0000:00:16.0\nClass:\tCommunication controller\nVendor:\tIntel Corporation\nDevice:\tC610/X99 series chipset MEI Controller #1\nSVendor:\tIntel Corporation\nSDevice:\tDevice 35cb\nRev:\t05\nModule:\tmei_me\n\nSlot:\t0000:00:16.1\nClass:\tCommunication controller\nVendor:\tIntel Corporation\nDevice:\tC610/X99 series chipset MEI Controller #2\nSVendor:\tIntel Corporation\nSDevice:\tDevice 35cb\nRev:\t05\n\nSlot:\t0000:00:1a.0\nClass:\tUSB controller\nVendor:\tIntel Corporation\nDevice:\tC610/X99 series chipset USB Enhanced Host Controller #2\nSVendor:\tIntel Corporation\nSDevice:\tDevice 35cb\nRev:\t05\nProgIf:\t20\nDriver:\tehci-pci\nModule:\tehci_pci\n\nSlot:\t0000:00:1c.0\nClass:\tPCI bridge\nVendor:\tIntel Corporation\nDevice:\tC610/X99 series chipset PCI Express Root Port #1\nRev:\td5\nDriver:\tpcieport\nModule:\tshpchp\n\nSlot:\t0000:00:1c.4\nClass:\tPCI bridge\nVendor:\tIntel Corporation\nDevice:\tC610/X99 series chipset PCI Express Root Port #5\nRev:\td5\nDriver:\tpcieport\nModule:\tshpchp\n\nSlot:\t0000:00:1c.6\nClass:\tPCI bridge\nVendor:\tIntel Corporation\nDevice:\tC610/X99 series chipset PCI Express Root Port #7\nRev:\td5\nDriver:\tpcieport\nModule:\tshpchp\n\nSlot:\t0000:00:1c.7\nClass:\tPCI bridge\nVendor:\tIntel Corporation\nDevice:\tC610/X99 series chipset PCI Express Root Port #8\nRev:\td5\nDriver:\tpcieport\nModule:\tshpchp\n\nSlot:\t0000:00:1d.0\nClass:\tUSB controller\nVendor:\tIntel Corporation\nDevice:\tC610/X99 series chipset USB Enhanced Host Controller #1\nSVendor:\tIntel Corporation\nSDevice:\tDevice 35cb\nRev:\t05\nProgIf:\t20\nDriver:\tehci-pci\nModule:\tehci_pci\n\nSlot:\t0000:00:1f.0\nClass:\tISA bridge\nVendor:\tIntel Corporation\nDevice:\tC610/X99 series chipset LPC Controller\nSVendor:\tIntel Corporation\nSDevice:\tDevice 35cb\nRev:\t05\nDriver:\tlpc_ich\nModule:\tlpc_ich\n\nSlot:\t0000:00:1f.2\nClass:\tSATA controller\nVendor:\tIntel Corporation\nDevice:\tC610/X99 series chipset 6-Port SATA Controller [AHCI mode]\nSVendor:\tIntel Corporation\nSDevice:\tDevice 35cb\nRev:\t05\nProgIf:\t01\nDriver:\tahci\nModule:\tahci\n\nSlot:\t0000:00:1f.3\nClass:\tSMBus\nVendor:\tIntel Corporation\nDevice:\tC610/X99 series chipset SMBus Controller\nSVendor:\tIntel Corporation\nSDevice:\tDevice 35cb\nRev:\t05\nDriver:\ti801_smbus\nModule:\ti2c_i801\n\nSlot:\t0000:00:1f.6\nClass:\tSignal processing controller\nVendor:\tIntel Corporation\nDevice:\tC610/X99 series chipset Thermal Subsystem\nSVendor:\tIntel Corporation\nSDevice:\tDevice 35cb\nRev:\t05\n\nSlot:\t0000:02:00.0\nClass:\tVGA compatible controller\nVendor:\tMatrox Electronics Systems Ltd.\nDevice:\tMGA G200e [Pilot] ServerEngines (SEP1)\nSVendor:\tIntel Corporation\nSDevice:\tDevice 0103\nRev:\t05\nDriver:\tmgag200\nModule:\tmgag200\n\nSlot:\t0000:03:00.0\nClass:\tEthernet controller\nVendor:\tIntel Corporation\nDevice:\tI210 Gigabit Network Connection\nSVendor:\tIntel Corporation\nSDevice:\tDevice 35cb\nRev:\t03\nDriver:\tigb\nModule:\tigb\n\nSlot:\t0000:04:00.0\nClass:\tEthernet controller\nVendor:\tIntel Corporation\nDevice:\tI210 Gigabit Network Connection\nSVendor:\tIntel Corporation\nSDevice:\tDevice 35cb\nRev:\t03\nDriver:\tigb\nModule:\tigb\n\nSlot:\t0000:fe:08.0\nClass:\tSystem peripheral\nVendor:\tIntel Corporation\nDevice:\tDevice 782f\nSVendor:\tIntel Corporation\nSDevice:\tDevice 782f\nRev:\t10\n\nSlot:\t0000:fe:08.1\nClass:\tSystem peripheral\nVendor:\tIntel Corporation\nDevice:\tDevice 782f\nSVendor:\tIntel Corporation\nSDevice:\tDevice 782f\nRev:\t10\n\nSlot:\t0000:fe:08.2\nClass:\tSystem peripheral\nVendor:\tIntel Corporation\nDevice:\tDevice 782f\nSVendor:\tIntel Corporation\nSDevice:\tDevice 782f\nRev:\t10\n\nSlot:\t0000:fe:08.3\nClass:\tSystem peripheral\nVendor:\tIntel Corporation\nDevice:\tDevice 782f\nSVendor:\tIntel Corporation\nSDevice:\tDevice 782f\nRev:\t10\n\nSlot:\t0000:fe:08.4\nClass:\tSystem peripheral\nVendor:\tIntel Corporation\nDevice:\tDevice 782f\nSVendor:\tIntel Corporation\nSDevice:\tDevice 782f\nRev:\t10\n\nSlot:\t0000:fe:08.5\nClass:\tSystem peripheral\nVendor:\tIntel Corporation\nDevice:\tDevice 782f\nSVendor:\tIntel Corporation\nSDevice:\tDevice 782f\nRev:\t10\n\nSlot:\t0000:fe:08.6\nClass:\tSystem peripheral\nVendor:\tIntel Corporation\nDevice:\tDevice 782f\nSVendor:\tIntel Corporation\nSDevice:\tDevice 782f\nRev:\t10\n\nSlot:\t0000:fe:08.7\nClass:\tSystem peripheral\nVendor:\tIntel Corporation\nDevice:\tDevice 782f\nSVendor:\tIntel Corporation\nSDevice:\tDevice 782f\nRev:\t10\n\nSlot:\t0000:fe:09.0\nClass:\tSystem peripheral\nVendor:\tIntel Corporation\nDevice:\tDevice 782f\nSVendor:\tIntel Corporation\nSDevice:\tDevice 782f\nRev:\t10\n\nSlot:\t0000:fe:09.1\nClass:\tSystem peripheral\nVendor:\tIntel Corporation\nDevice:\tDevice 782f\nSVendor:\tIntel Corporation\nSDevice:\tDevice 782f\nRev:\t10\n\nSlot:\t0000:fe:09.2\nClass:\tSystem peripheral\nVendor:\tIntel Corporation\nDevice:\tDevice 782f\nSVendor:\tIntel Corporation\nSDevice:\tDevice 782f\nRev:\t10\n\nSlot:\t0000:fe:09.3\nClass:\tSystem peripheral\nVendor:\tIntel Corporation\nDevice:\tDevice 782f\nSVendor:\tIntel Corporation\nSDevice:\tDevice 782f\nRev:\t10\n\nSlot:\t0000:fe:09.4\nClass:\tSystem peripheral\nVendor:\tIntel Corporation\nDevice:\tDevice 782f\nSVendor:\tIntel Corporation\nSDevice:\tDevice 782f\nRev:\t10\n\nSlot:\t0000:fe:09.5\nClass:\tSystem peripheral\nVendor:\tIntel Corporation\nDevice:\tDevice 782f\nSVendor:\tIntel Corporation\nSDevice:\tDevice 782f\nRev:\t10\n\nSlot:\t0000:fe:09.6\nClass:\tSystem peripheral\nVendor:\tIntel Corporation\nDevice:\tDevice 782f\nSVendor:\tIntel Corporation\nSDevice:\tDevice 782f\nRev:\t10\n\nSlot:\t0000:fe:09.7\nClass:\tSystem peripheral\nVendor:\tIntel Corporation\nDevice:\tDevice 782f\nSVendor:\tIntel Corporation\nSDevice:\tDevice 782f\nRev:\t10\n\nSlot:\t0000:fe:0a.0\nClass:\tSystem peripheral\nVendor:\tIntel Corporation\nDevice:\tDevice 782f\nSVendor:\tIntel Corporation\nSDevice:\tDevice 782f\nRev:\t10\n\nSlot:\t0000:fe:0a.1\nClass:\tSystem peripheral\nVendor:\tIntel Corporation\nDevice:\tDevice 782f\nSVendor:\tIntel Corporation\nSDevice:\tDevice 782f\nRev:\t10\n\nSlot:\t0000:fe:0a.2\nClass:\tSystem peripheral\nVendor:\tIntel Corporation\nDevice:\tDevice 782f\nSVendor:\tIntel Corporation\nSDevice:\tDevice 782f\nRev:\t10\n\nSlot:\t0000:fe:0a.3\nClass:\tSystem peripheral\nVendor:\tIntel Corporation\nDevice:\tDevice 782f\nSVendor:\tIntel Corporation\nSDevice:\tDevice 782f\nRev:\t10\n\nSlot:\t0000:fe:0a.4\nClass:\tSystem peripheral\nVendor:\tIntel Corporation\nDevice:\tDevice 782f\nSVendor:\tIntel Corporation\nSDevice:\tDevice 782f\nRev:\t10\n\nSlot:\t0000:fe:0a.5\nClass:\tSystem peripheral\nVendor:\tIntel Corporation\nDevice:\tDevice 782f\nSVendor:\tIntel Corporation\nSDevice:\tDevice 782f\nRev:\t10\n\nSlot:\t0000:fe:0a.6\nClass:\tSystem peripheral\nVendor:\tIntel Corporation\nDevice:\tDevice 782f\nSVendor:\tIntel Corporation\nSDevice:\tDevice 782f\nRev:\t10\n\nSlot:\t0000:fe:0a.7\nClass:\tSystem peripheral\nVendor:\tIntel Corporation\nDevice:\tDevice 782f\nSVendor:\tIntel Corporation\nSDevice:\tDevice 782f\nRev:\t10\n\nSlot:\t0000:fe:0b.0\nClass:\tSystem peripheral\nVendor:\tIntel Corporation\nDevice:\tDevice 782f\nSVendor:\tIntel Corporation\nSDevice:\tDevice 782f\nRev:\t10\n\nSlot:\t0000:fe:0b.1\nClass:\tSystem peripheral\nVendor:\tIntel Corporation\nDevice:\tDevice 782f\nSVendor:\tIntel Corporation\nSDevice:\tDevice 782f\nRev:\t10\n\nSlot:\t0000:fe:0b.2\nClass:\tSystem peripheral\nVendor:\tIntel Corporation\nDevice:\tDevice 782f\nSVendor:\tIntel Corporation\nSDevice:\tDevice 782f\nRev:\t10\n\nSlot:\t0000:fe:0b.3\nClass:\tSystem peripheral\nVendor:\tIntel Corporation\nDevice:\tDevice 782f\nSVendor:\tIntel Corporation\nSDevice:\tDevice 782f\nRev:\t10\n\nSlot:\t0000:fe:0b.4\nClass:\tSystem peripheral\nVendor:\tIntel Corporation\nDevice:\tDevice 782f\nSVendor:\tIntel Corporation\nSDevice:\tDevice 782f\nRev:\t10\n\nSlot:\t0000:fe:0b.5\nClass:\tSystem peripheral\nVendor:\tIntel Corporation\nDevice:\tDevice 782f\nSVendor:\tIntel Corporation\nSDevice:\tDevice 782f\nRev:\t10\n\nSlot:\t0000:fe:0b.6\nClass:\tSystem peripheral\nVendor:\tIntel Corporation\nDevice:\tDevice 782f\nSVendor:\tIntel Corporation\nSDevice:\tDevice 782f\nRev:\t10\n\nSlot:\t0000:fe:0b.7\nClass:\tSystem peripheral\nVendor:\tIntel Corporation\nDevice:\tDevice 782f\nSVendor:\tIntel Corporation\nSDevice:\tDevice 782f\nRev:\t10\n\nSlot:\t0000:fe:0c.0\nClass:\tSystem peripheral\nVendor:\tIntel Corporation\nDevice:\tDevice 782f\nSVendor:\tIntel Corporation\nSDevice:\tDevice 782f\nRev:\t10\n\nSlot:\t0000:fe:0c.1\nClass:\tSystem peripheral\nVendor:\tIntel Corporation\nDevice:\tDevice 782f\nSVendor:\tIntel Corporation\nSDevice:\tDevice 782f\nRev:\t10\n\nSlot:\t0000:fe:0c.2\nClass:\tSystem peripheral\nVendor:\tIntel Corporation\nDevice:\tDevice 782f\nSVendor:\tIntel Corporation\nSDevice:\tDevice 782f\nRev:\t10\n\nSlot:\t0000:fe:0c.3\nClass:\tSystem peripheral\nVendor:\tIntel Corporation\nDevice:\tDevice 782f\nSVendor:\tIntel Corporation\nSDevice:\tDevice 782f\nRev:\t10\n\nSlot:\t0000:fe:0c.4\nClass:\tSystem peripheral\nVendor:\tIntel Corporation\nDevice:\tDevice 782f\nSVendor:\tIntel Corporation\nSDevice:\tDevice 782f\nRev:\t10\n\nSlot:\t0000:fe:0c.5\nClass:\tSystem peripheral\nVendor:\tIntel Corporation\nDevice:\tDevice 782f\nSVendor:\tIntel Corporation\nSDevice:\tDevice 782f\nRev:\t10\n\nSlot:\t0000:fe:0e.0\nClass:\tSystem peripheral\nVendor:\tIntel Corporation\nDevice:\tDevice 782c\nSVendor:\tIntel Corporation\nSDevice:\tDevice 782c\nRev:\t10\n\nSlot:\t0000:fe:0e.1\nClass:\tSystem peripheral\nVendor:\tIntel Corporation\nDevice:\tDevice 782c\nSVendor:\tIntel Corporation\nSDevice:\tDevice 782c\nRev:\t10\n\nSlot:\t0000:fe:0e.2\nClass:\tSystem peripheral\nVendor:\tIntel Corporation\nDevice:\tDevice 782c\nSVendor:\tIntel Corporation\nSDevice:\tDevice 782c\nRev:\t10\n\nSlot:\t0000:fe:0e.3\nClass:\tSystem peripheral\nVendor:\tIntel Corporation\nDevice:\tDevice 782c\nSVendor:\tIntel Corporation\nSDevice:\tDevice 782c\nRev:\t10\n\nSlot:\t0000:fe:0e.4\nClass:\tSystem peripheral\nVendor:\tIntel Corporation\nDevice:\tDevice 782c\nSVendor:\tIntel Corporation\nSDevice:\tDevice 782c\nRev:\t10\n\nSlot:\t0000:fe:0e.5\nClass:\tSystem peripheral\nVendor:\tIntel Corporation\nDevice:\tDevice 782c\nSVendor:\tIntel Corporation\nSDevice:\tDevice 782c\nRev:\t10\n\nSlot:\t0000:fe:0e.6\nClass:\tSystem peripheral\nVendor:\tIntel Corporation\nDevice:\tDevice 782c\nSVendor:\tIntel Corporation\nSDevice:\tDevice 782c\nRev:\t10\n\nSlot:\t0000:fe:0e.7\nClass:\tSystem peripheral\nVendor:\tIntel Corporation\nDevice:\tDevice 782c\nSVendor:\tIntel Corporation\nSDevice:\tDevice 782c\nRev:\t10\n\nSlot:\t0000:fe:0f.0\nClass:\tSystem peripheral\nVendor:\tIntel Corporation\nDevice:\tDevice 782c\nSVendor:\tIntel Corporation\nSDevice:\tDevice 782c\nRev:\t10\n\nSlot:\t0000:fe:0f.1\nClass:\tSystem peripheral\nVendor:\tIntel Corporation\nDevice:\tDevice 782c\nSVendor:\tIntel Corporation\nSDevice:\tDevice 782c\nRev:\t10\n\nSlot:\t0000:fe:0f.2\nClass:\tSystem peripheral\nVendor:\tIntel Corporation\nDevice:\tDevice 782c\nSVendor:\tIntel Corporation\nSDevice:\tDevice 782c\nRev:\t10\n\nSlot:\t0000:fe:0f.3\nClass:\tSystem peripheral\nVendor:\tIntel Corporation\nDevice:\tDevice 782c\nSVendor:\tIntel Corporation\nSDevice:\tDevice 782c\nRev:\t10\n\nSlot:\t0000:fe:0f.4\nClass:\tSystem peripheral\nVendor:\tIntel Corporation\nDevice:\tDevice 782c\nSVendor:\tIntel Corporation\nSDevice:\tDevice 782c\nRev:\t10\n\nSlot:\t0000:fe:0f.5\nClass:\tSystem peripheral\nVendor:\tIntel Corporation\nDevice:\tDevice 782c\nSVendor:\tIntel Corporation\nSDevice:\tDevice 782c\nRev:\t10\n\nSlot:\t0000:fe:0f.6\nClass:\tSystem peripheral\nVendor:\tIntel Corporation\nDevice:\tDevice 782c\nSVendor:\tIntel Corporation\nSDevice:\tDevice 782c\nRev:\t10\n\nSlot:\t0000:fe:0f.7\nClass:\tSystem peripheral\nVendor:\tIntel Corporation\nDevice:\tDevice 782c\nSVendor:\tIntel Corporation\nSDevice:\tDevice 782c\nRev:\t10\n\nSlot:\t0000:fe:10.0\nClass:\tSystem peripheral\nVendor:\tIntel Corporation\nDevice:\tDevice 782c\nSVendor:\tIntel Corporation\nSDevice:\tDevice 782c\nRev:\t10\n\nSlot:\t0000:fe:10.1\nClass:\tSystem peripheral\nVendor:\tIntel Corporation\nDevice:\tDevice 782c\nSVendor:\tIntel Corporation\nSDevice:\tDevice 782c\nRev:\t10\n\nSlot:\t0000:fe:10.2\nClass:\tSystem peripheral\nVendor:\tIntel Corporation\nDevice:\tDevice 782c\nSVendor:\tIntel Corporation\nSDevice:\tDevice 782c\nRev:\t10\n\nSlot:\t0000:fe:10.3\nClass:\tSystem peripheral\nVendor:\tIntel Corporation\nDevice:\tDevice 782c\nSVendor:\tIntel Corporation\nSDevice:\tDevice 782c\nRev:\t10\n\nSlot:\t0000:fe:10.4\nClass:\tSystem peripheral\nVendor:\tIntel Corporation\nDevice:\tDevice 782c\nSVendor:\tIntel Corporation\nSDevice:\tDevice 782c\nRev:\t10\n\nSlot:\t0000:fe:10.5\nClass:\tSystem peripheral\nVendor:\tIntel Corporation\nDevice:\tDevice 782c\nSVendor:\tIntel Corporation\nSDevice:\tDevice 782c\nRev:\t10\n\nSlot:\t0000:fe:10.6\nClass:\tSystem peripheral\nVendor:\tIntel Corporation\nDevice:\tDevice 782c\nSVendor:\tIntel Corporation\nSDevice:\tDevice 782c\nRev:\t10\n\nSlot:\t0000:fe:10.7\nClass:\tSystem peripheral\nVendor:\tIntel Corporation\nDevice:\tDevice 782c\nSVendor:\tIntel Corporation\nSDevice:\tDevice 782c\nRev:\t10\n\nSlot:\t0000:fe:11.0\nClass:\tSystem peripheral\nVendor:\tIntel Corporation\nDevice:\tDevice 782c\nSVendor:\tIntel Corporation\nSDevice:\tDevice 782c\nRev:\t10\n\nSlot:\t0000:fe:11.1\nClass:\tSystem peripheral\nVendor:\tIntel Corporation\nDevice:\tDevice 782c\nSVendor:\tIntel Corporation\nSDevice:\tDevice 782c\nRev:\t10\n\nSlot:\t0000:fe:11.2\nClass:\tSystem peripheral\nVendor:\tIntel Corporation\nDevice:\tDevice 782c\nSVendor:\tIntel Corporation\nSDevice:\tDevice 782c\nRev:\t10\n\nSlot:\t0000:fe:11.3\nClass:\tSystem peripheral\nVendor:\tIntel Corporation\nDevice:\tDevice 782c\nSVendor:\tIntel Corporation\nSDevice:\tDevice 782c\nRev:\t10\n\nSlot:\t0000:fe:11.4\nClass:\tSystem peripheral\nVendor:\tIntel Corporation\nDevice:\tDevice 782c\nSVendor:\tIntel Corporation\nSDevice:\tDevice 782c\nRev:\t10\n\nSlot:\t0000:fe:11.5\nClass:\tSystem peripheral\nVendor:\tIntel Corporation\nDevice:\tDevice 782c\nSVendor:\tIntel Corporation\nSDevice:\tDevice 782c\nRev:\t10\n\nSlot:\t0000:fe:11.6\nClass:\tSystem peripheral\nVendor:\tIntel Corporation\nDevice:\tDevice 782c\nSVendor:\tIntel Corporation\nSDevice:\tDevice 782c\nRev:\t10\n\nSlot:\t0000:fe:11.7\nClass:\tSystem peripheral\nVendor:\tIntel Corporation\nDevice:\tDevice 782c\nSVendor:\tIntel Corporation\nSDevice:\tDevice 782c\nRev:\t10\n\nSlot:\t0000:fe:12.0\nClass:\tSystem peripheral\nVendor:\tIntel Corporation\nDevice:\tDevice 782c\nSVendor:\tIntel Corporation\nSDevice:\tDevice 782c\nRev:\t10\n\nSlot:\t0000:fe:12.1\nClass:\tSystem peripheral\nVendor:\tIntel Corporation\nDevice:\tDevice 782c\nSVendor:\tIntel Corporation\nSDevice:\tDevice 782c\nRev:\t10\n\nSlot:\t0000:fe:12.2\nClass:\tSystem peripheral\nVendor:\tIntel Corporation\nDevice:\tDevice 782c\nSVendor:\tIntel Corporation\nSDevice:\tDevice 782c\nRev:\t10\n\nSlot:\t0000:fe:12.3\nClass:\tSystem peripheral\nVendor:\tIntel Corporation\nDevice:\tDevice 782c\nSVendor:\tIntel Corporation\nSDevice:\tDevice 782c\nRev:\t10\n\nSlot:\t0000:fe:12.4\nClass:\tSystem peripheral\nVendor:\tIntel Corporation\nDevice:\tDevice 782c\nSVendor:\tIntel Corporation\nSDevice:\tDevice 782c\nRev:\t10\n\nSlot:\t0000:fe:12.5\nClass:\tSystem peripheral\nVendor:\tIntel Corporation\nDevice:\tDevice 782c\nSVendor:\tIntel Corporation\nSDevice:\tDevice 782c\nRev:\t10\n\nSlot:\t0000:fe:14.0\nClass:\tSystem peripheral\nVendor:\tIntel Corporation\nDevice:\tDevice 781f\nSVendor:\tIntel Corporation\nSDevice:\tDevice 781f\nRev:\t10\n\nSlot:\t0000:fe:14.1\nClass:\tSystem peripheral\nVendor:\tIntel Corporation\nDevice:\tDevice 781f\nSVendor:\tIntel Corporation\nSDevice:\tDevice 781f\nRev:\t10\n\nSlot:\t0000:fe:14.2\nClass:\tSystem peripheral\nVendor:\tIntel Corporation\nDevice:\tDevice 781f\nSVendor:\tIntel Corporation\nSDevice:\tDevice 781f\nRev:\t10\n\nSlot:\t0000:fe:14.3\nClass:\tSystem peripheral\nVendor:\tIntel Corporation\nDevice:\tDevice 781f\nSVendor:\tIntel Corporation\nSDevice:\tDevice 781f\nRev:\t10\n\nSlot:\t0000:fe:14.4\nClass:\tSystem peripheral\nVendor:\tIntel Corporation\nDevice:\tDevice 781f\nSVendor:\tIntel Corporation\nSDevice:\tDevice 781f\nRev:\t10\n\nSlot:\t0000:fe:14.5\nClass:\tSystem peripheral\nVendor:\tIntel Corporation\nDevice:\tDevice 781f\nSVendor:\tIntel Corporation\nSDevice:\tDevice 781f\nRev:\t10\n\nSlot:\t0000:fe:14.6\nClass:\tSystem peripheral\nVendor:\tIntel Corporation\nDevice:\tDevice 781f\nSVendor:\tIntel Corporation\nSDevice:\tDevice 781f\nRev:\t10\n\nSlot:\t0000:fe:14.7\nClass:\tSystem peripheral\nVendor:\tIntel Corporation\nDevice:\tDevice 781f\nSVendor:\tIntel Corporation\nSDevice:\tDevice 781f\nRev:\t10\n\nSlot:\t0000:fe:15.0\nClass:\tSystem peripheral\nVendor:\tIntel Corporation\nDevice:\tDevice 781f\nSVendor:\tIntel Corporation\nSDevice:\tDevice 781f\nRev:\t10\n\nSlot:\t0000:fe:15.1\nClass:\tSystem peripheral\nVendor:\tIntel Corporation\nDevice:\tDevice 781f\nSVendor:\tIntel Corporation\nSDevice:\tDevice 781f\nRev:\t10\n\nSlot:\t0000:fe:15.2\nClass:\tSystem peripheral\nVendor:\tIntel Corporation\nDevice:\tDevice 781f\nSVendor:\tIntel Corporation\nSDevice:\tDevice 781f\nRev:\t10\n\nSlot:\t0000:fe:15.3\nClass:\tSystem peripheral\nVendor:\tIntel Corporation\nDevice:\tDevice 781f\nSVendor:\tIntel Corporation\nSDevice:\tDevice 781f\nRev:\t10\n\nSlot:\t0000:fe:15.4\nClass:\tSystem peripheral\nVendor:\tIntel Corporation\nDevice:\tDevice 781f\nSVendor:\tIntel Corporation\nSDevice:\tDevice 781f\nRev:\t10\n\nSlot:\t0000:fe:15.5\nClass:\tSystem peripheral\nVendor:\tIntel Corporation\nDevice:\tDevice 781f\nSVendor:\tIntel Corporation\nSDevice:\tDevice 781f\nRev:\t10\n\nSlot:\t0000:fe:15.6\nClass:\tSystem peripheral\nVendor:\tIntel Corporation\nDevice:\tDevice 781f\nSVendor:\tIntel Corporation\nSDevice:\tDevice 781f\nRev:\t10\n\nSlot:\t0000:fe:15.7\nClass:\tSystem peripheral\nVendor:\tIntel Corporation\nDevice:\tDevice 781f\nSVendor:\tIntel Corporation\nSDevice:\tDevice 781f\nRev:\t10\n\nSlot:\t0000:fe:16.0\nClass:\tSystem peripheral\nVendor:\tIntel Corporation\nDevice:\tDevice 781f\nSVendor:\tIntel Corporation\nSDevice:\tDevice 781f\nRev:\t10\n\nSlot:\t0000:fe:16.1\nClass:\tSystem peripheral\nVendor:\tIntel Corporation\nDevice:\tDevice 781f\nSVendor:\tIntel Corporation\nSDevice:\tDevice 781f\nRev:\t10\n\nSlot:\t0000:fe:16.2\nClass:\tSystem peripheral\nVendor:\tIntel Corporation\nDevice:\tDevice 781f\nSVendor:\tIntel Corporation\nSDevice:\tDevice 781f\nRev:\t10\n\nSlot:\t0000:fe:16.3\nClass:\tSystem peripheral\nVendor:\tIntel Corporation\nDevice:\tDevice 781f\nSVendor:\tIntel Corporation\nSDevice:\tDevice 781f\nRev:\t10\n\nSlot:\t0000:fe:16.4\nClass:\tSystem peripheral\nVendor:\tIntel Corporation\nDevice:\tDevice 781f\nSVendor:\tIntel Corporation\nSDevice:\tDevice 781f\nRev:\t10\n\nSlot:\t0000:fe:16.5\nClass:\tSystem peripheral\nVendor:\tIntel Corporation\nDevice:\tDevice 781f\nSVendor:\tIntel Corporation\nSDevice:\tDevice 781f\nRev:\t10\n\nSlot:\t0000:fe:16.6\nClass:\tSystem peripheral\nVendor:\tIntel Corporation\nDevice:\tDevice 781f\nSVendor:\tIntel Corporation\nSDevice:\tDevice 781f\nRev:\t10\n\nSlot:\t0000:fe:16.7\nClass:\tSystem peripheral\nVendor:\tIntel Corporation\nDevice:\tDevice 781f\nSVendor:\tIntel Corporation\nSDevice:\tDevice 781f\nRev:\t10\n\nSlot:\t0000:fe:17.0\nClass:\tSystem peripheral\nVendor:\tIntel Corporation\nDevice:\tDevice 781f\nSVendor:\tIntel Corporation\nSDevice:\tDevice 781f\nRev:\t10\n\nSlot:\t0000:fe:17.1\nClass:\tSystem peripheral\nVendor:\tIntel Corporation\nDevice:\tDevice 781f\nSVendor:\tIntel Corporation\nSDevice:\tDevice 781f\nRev:\t10\n\nSlot:\t0000:fe:17.2\nClass:\tSystem peripheral\nVendor:\tIntel Corporation\nDevice:\tDevice 781f\nSVendor:\tIntel Corporation\nSDevice:\tDevice 781f\nRev:\t10\n\nSlot:\t0000:fe:17.3\nClass:\tSystem peripheral\nVendor:\tIntel Corporation\nDevice:\tDevice 781f\nSVendor:\tIntel Corporation\nSDevice:\tDevice 781f\nRev:\t10\n\nSlot:\t0000:fe:17.4\nClass:\tSystem peripheral\nVendor:\tIntel Corporation\nDevice:\tDevice 781f\nSVendor:\tIntel Corporation\nSDevice:\tDevice 781f\nRev:\t10\n\nSlot:\t0000:fe:17.5\nClass:\tSystem peripheral\nVendor:\tIntel Corporation\nDevice:\tDevice 781f\nSVendor:\tIntel Corporation\nSDevice:\tDevice 781f\nRev:\t10\n\nSlot:\t0000:fe:17.6\nClass:\tSystem peripheral\nVendor:\tIntel Corporation\nDevice:\tDevice 781f\nSVendor:\tIntel Corporation\nSDevice:\tDevice 781f\nRev:\t10\n\nSlot:\t0000:fe:17.7\nClass:\tSystem peripheral\nVendor:\tIntel Corporation\nDevice:\tDevice 781f\nSVendor:\tIntel Corporation\nSDevice:\tDevice 781f\nRev:\t10\n\nSlot:\t0000:fe:18.0\nClass:\tSystem peripheral\nVendor:\tIntel Corporation\nDevice:\tDevice 781f\nSVendor:\tIntel Corporation\nSDevice:\tDevice 781f\nRev:\t10\n\nSlot:\t0000:fe:18.1\nClass:\tSystem peripheral\nVendor:\tIntel Corporation\nDevice:\tDevice 781f\nSVendor:\tIntel Corporation\nSDevice:\tDevice 781f\nRev:\t10\n\nSlot:\t0000:fe:18.2\nClass:\tSystem peripheral\nVendor:\tIntel Corporation\nDevice:\tDevice 781f\nSVendor:\tIntel Corporation\nSDevice:\tDevice 781f\nRev:\t10\n\nSlot:\t0000:fe:18.3\nClass:\tSystem peripheral\nVendor:\tIntel Corporation\nDevice:\tDevice 781f\nSVendor:\tIntel Corporation\nSDevice:\tDevice 781f\nRev:\t10\n\nSlot:\t0000:fe:18.4\nClass:\tSystem peripheral\nVendor:\tIntel Corporation\nDevice:\tDevice 781f\nSVendor:\tIntel Corporation\nSDevice:\tDevice 781f\nRev:\t10\n\nSlot:\t0000:fe:18.5\nClass:\tSystem peripheral\nVendor:\tIntel Corporation\nDevice:\tDevice 781f\nSVendor:\tIntel Corporation\nSDevice:\tDevice 781f\nRev:\t10\n\nSlot:\t0000:fe:1d.0\nClass:\tSystem peripheral\nVendor:\tIntel Corporation\nDevice:\tDevice 782a\nSVendor:\tIntel Corporation\nSDevice:\tDevice 782a\nRev:\t10\nDriver:\tsbridge_edac\nModule:\tsb_edac\n\nSlot:\t0000:fe:1d.1\nClass:\tSystem peripheral\nVendor:\tIntel Corporation\nDevice:\tDevice 782b\nSVendor:\tIntel Corporation\nSDevice:\tDevice 782b\nRev:\t10\n\nSlot:\t0000:fe:1d.2\nClass:\tSystem peripheral\nVendor:\tIntel Corporation\nDevice:\tDevice 782e\nSVendor:\tIntel Corporation\nSDevice:\tDevice 782f\nRev:\t10\n\nSlot:\t0000:fe:1d.3\nClass:\tSystem peripheral\nVendor:\tIntel Corporation\nDevice:\tDevice 782d\nSVendor:\tIntel Corporation\nSDevice:\tDevice 782d\nRev:\t10\n\nSlot:\t0000:fe:1e.0\nClass:\tSystem peripheral\nVendor:\tIntel Corporation\nDevice:\tDevice 7820\nSVendor:\tIntel Corporation\nSDevice:\tDevice 7820\nRev:\t10\n\nSlot:\t0000:fe:1e.1\nClass:\tSystem peripheral\nVendor:\tIntel Corporation\nDevice:\tDevice 7821\nSVendor:\tIntel Corporation\nSDevice:\tDevice 7821\nRev:\t10\n\nSlot:\t0000:fe:1e.2\nClass:\tSystem peripheral\nVendor:\tIntel Corporation\nDevice:\tDevice 7822\nSVendor:\tIntel Corporation\nSDevice:\tDevice 7822\nRev:\t10\n\nSlot:\t0000:fe:1e.3\nClass:\tSystem peripheral\nVendor:\tIntel Corporation\nDevice:\tDevice 7823\nSVendor:\tIntel Corporation\nSDevice:\tDevice 7823\nRev:\t10\n\nSlot:\t0000:fe:1e.4\nClass:\tSystem peripheral\nVendor:\tIntel Corporation\nDevice:\tDevice 7824\nSVendor:\tIntel Corporation\nSDevice:\tDevice 7824\nRev:\t10\n\nSlot:\t0000:fe:1e.5\nClass:\tSystem peripheral\nVendor:\tIntel Corporation\nDevice:\tDevice 7825\nSVendor:\tIntel Corporation\nSDevice:\tDevice 7825\nRev:\t10\n\nSlot:\t0000:fe:1e.6\nClass:\tSystem peripheral\nVendor:\tIntel Corporation\nDevice:\tDevice 7826\nSVendor:\tIntel Corporation\nSDevice:\tDevice 7826\nRev:\t10\n\nSlot:\t0000:ff:08.0\nClass:\tSystem peripheral\nVendor:\tIntel Corporation\nDevice:\tDevice 7840\nSVendor:\tIntel Corporation\nSDevice:\tDevice 35cb\nRev:\t10\n\nSlot:\t0000:ff:08.1\nClass:\tSystem peripheral\nVendor:\tIntel Corporation\nDevice:\tDevice 7842\nSVendor:\tIntel Corporation\nSDevice:\tDevice 35cb\nRev:\t10\n\nSlot:\t0000:ff:08.2\nClass:\tSystem peripheral\nVendor:\tIntel Corporation\nDevice:\tDevice 7843\nSVendor:\tIntel Corporation\nSDevice:\tDevice 35cb\nRev:\t10\nDriver:\tknl_uncore\n\nSlot:\t0000:ff:08.3\nClass:\tSystem peripheral\nVendor:\tIntel Corporation\nDevice:\tDevice 7843\nSVendor:\tIntel Corporation\nSDevice:\tDevice 35cb\nRev:\t10\nDriver:\tknl_uncore\n\nSlot:\t0000:ff:08.4\nClass:\tSystem peripheral\nVendor:\tIntel Corporation\nDevice:\tDevice 7843\nSVendor:\tIntel Corporation\nSDevice:\tDevice 35cb\nRev:\t10\nDriver:\tknl_uncore\n\nSlot:\t0000:ff:09.0\nClass:\tSystem peripheral\nVendor:\tIntel Corporation\nDevice:\tDevice 7840\nSVendor:\tIntel Corporation\nSDevice:\tDevice 35cb\nRev:\t10\n\nSlot:\t0000:ff:09.1\nClass:\tSystem peripheral\nVendor:\tIntel Corporation\nDevice:\tDevice 7842\nSVendor:\tIntel Corporation\nSDevice:\tDevice 35cb\nRev:\t10\n\nSlot:\t0000:ff:09.2\nClass:\tSystem peripheral\nVendor:\tIntel Corporation\nDevice:\tDevice 7843\nSVendor:\tIntel Corporation\nSDevice:\tDevice 35cb\nRev:\t10\nDriver:\tknl_uncore\n\nSlot:\t0000:ff:09.3\nClass:\tSystem peripheral\nVendor:\tIntel Corporation\nDevice:\tDevice 7843\nSVendor:\tIntel Corporation\nSDevice:\tDevice 35cb\nRev:\t10\nDriver:\tknl_uncore\n\nSlot:\t0000:ff:09.4\nClass:\tSystem peripheral\nVendor:\tIntel Corporation\nDevice:\tDevice 7843\nSVendor:\tIntel Corporation\nSDevice:\tDevice 35cb\nRev:\t10\nDriver:\tknl_uncore\n\nSlot:\t0000:ff:0a.0\nClass:\tSystem peripheral\nVendor:\tIntel Corporation\nDevice:\tDevice 7841\nSVendor:\tIntel Corporation\nSDevice:\tDevice 35cb\nRev:\t10\nDriver:\tknl_uncore\n\nSlot:\t0000:ff:0a.1\nClass:\tSystem peripheral\nVendor:\tIntel Corporation\nDevice:\tDevice 7844\nSVendor:\tIntel Corporation\nSDevice:\tDevice 35cb\nRev:\t10\n\nSlot:\t0000:ff:0a.2\nClass:\tSystem peripheral\nVendor:\tIntel Corporation\nDevice:\tDevice 781f\nSVendor:\tIntel Corporation\nSDevice:\tDevice 35cb\nRev:\t10\n\nSlot:\t0000:ff:0b.0\nClass:\tSystem peripheral\nVendor:\tIntel Corporation\nDevice:\tDevice 7841\nSVendor:\tIntel Corporation\nSDevice:\tDevice 35cb\nRev:\t10\nDriver:\tknl_uncore\n\nSlot:\t0000:ff:0b.1\nClass:\tSystem peripheral\nVendor:\tIntel Corporation\nDevice:\tDevice 7844\nSVendor:\tIntel Corporation\nSDevice:\tDevice 35cb\nRev:\t10\n\nSlot:\t0000:ff:0b.2\nClass:\tSystem peripheral\nVendor:\tIntel Corporation\nDevice:\tDevice 781f\nSVendor:\tIntel Corporation\nSDevice:\tDevice 35cb\nRev:\t10\n\nSlot:\t0000:ff:0c.0\nClass:\tSystem peripheral\nVendor:\tIntel Corporation\nDevice:\tDevice 7816\nSVendor:\tIntel Corporation\nSDevice:\tDevice 35cb\nRev:\t10\n\nSlot:\t0000:ff:0c.1\nClass:\tPerformance counters\nVendor:\tIntel Corporation\nDevice:\tDevice 7817\nSVendor:\tIntel Corporation\nSDevice:\tDevice 35cb\nRev:\t10\nDriver:\tknl_uncore\n\nSlot:\t0000:ff:0c.2\nClass:\tSystem peripheral\nVendor:\tIntel Corporation\nDevice:\tDevice 781f\nSVendor:\tIntel Corporation\nSDevice:\tDevice 35cb\nRev:\t10\n\nSlot:\t0000:ff:0f.0\nClass:\tSystem peripheral\nVendor:\tIntel Corporation\nDevice:\tDevice 7833\nSVendor:\tIntel Corporation\nSDevice:\tDevice 35cb\nRev:\t10\nDriver:\tknl_uncore\n\nSlot:\t0000:ff:0f.1\nClass:\tSystem peripheral\nVendor:\tIntel Corporation\nDevice:\tDevice 7839\nSVendor:\tIntel Corporation\nSDevice:\tDevice 35cb\nRev:\t10\n\nSlot:\t0000:ff:0f.2\nClass:\tSystem peripheral\nVendor:\tIntel Corporation\nDevice:\tDevice 781f\nSVendor:\tIntel Corporation\nSDevice:\tDevice 35cb\nRev:\t10\n\nSlot:\t0000:ff:10.0\nClass:\tSystem peripheral\nVendor:\tIntel Corporation\nDevice:\tDevice 7833\nSVendor:\tIntel Corporation\nSDevice:\tDevice 35cb\nRev:\t10\nDriver:\tknl_uncore\n\nSlot:\t0000:ff:10.1\nClass:\tSystem peripheral\nVendor:\tIntel Corporation\nDevice:\tDevice 7839\nSVendor:\tIntel Corporation\nSDevice:\tDevice 35cb\nRev:\t10\n\nSlot:\t0000:ff:10.2\nClass:\tSystem peripheral\nVendor:\tIntel Corporation\nDevice:\tDevice 781f\nSVendor:\tIntel Corporation\nSDevice:\tDevice 35cb\nRev:\t10\n\nSlot:\t0000:ff:10.5\nClass:\tSystem peripheral\nVendor:\tIntel Corporation\nDevice:\tDevice 7848\nRev:\t10\n\nSlot:\t0000:ff:10.6\nClass:\tSystem peripheral\nVendor:\tIntel Corporation\nDevice:\tDevice 7848\nRev:\t10\n\nSlot:\t0000:ff:10.7\nClass:\tSystem peripheral\nVendor:\tIntel Corporation\nDevice:\tDevice 7848\nRev:\t10\n\nSlot:\t0000:ff:11.0\nClass:\tSystem peripheral\nVendor:\tIntel Corporation\nDevice:\tDevice 7833\nSVendor:\tIntel Corporation\nSDevice:\tDevice 35cb\nRev:\t10\nDriver:\tknl_uncore\n\nSlot:\t0000:ff:11.1\nClass:\tSystem peripheral\nVendor:\tIntel Corporation\nDevice:\tDevice 7839\nSVendor:\tIntel Corporation\nSDevice:\tDevice 35cb\nRev:\t10\n\nSlot:\t0000:ff:11.2\nClass:\tSystem peripheral\nVendor:\tIntel Corporation\nDevice:\tDevice 781f\nSVendor:\tIntel Corporation\nSDevice:\tDevice 35cb\nRev:\t10\n\nSlot:\t0000:ff:11.5\nClass:\tSystem peripheral\nVendor:\tIntel Corporation\nDevice:\tDevice 7849\nRev:\t10\n\nSlot:\t0000:ff:11.6\nClass:\tSystem peripheral\nVendor:\tIntel Corporation\nDevice:\tDevice 7849\nRev:\t10\n\nSlot:\t0000:ff:11.7\nClass:\tSystem peripheral\nVendor:\tIntel Corporation\nDevice:\tDevice 7849\nRev:\t10\n\nSlot:\t0000:ff:12.0\nClass:\tSystem peripheral\nVendor:\tIntel Corporation\nDevice:\tDevice 7833\nSVendor:\tIntel Corporation\nSDevice:\tDevice 35cb\nRev:\t10\nDriver:\tknl_uncore\n\nSlot:\t0000:ff:12.1\nClass:\tSystem peripheral\nVendor:\tIntel Corporation\nDevice:\tDevice 7839\nSVendor:\tIntel Corporation\nSDevice:\tDevice 35cb\nRev:\t10\n\nSlot:\t0000:ff:12.2\nClass:\tSystem peripheral\nVendor:\tIntel Corporation\nDevice:\tDevice 781f\nSVendor:\tIntel Corporation\nSDevice:\tDevice 35cb\nRev:\t10\n\nSlot:\t0000:ff:12.5\nClass:\tSystem peripheral\nVendor:\tIntel Corporation\nDevice:\tDevice 7848\nRev:\t10\n\nSlot:\t0000:ff:12.6\nClass:\tSystem peripheral\nVendor:\tIntel Corporation\nDevice:\tDevice 7848\nRev:\t10\n\nSlot:\t0000:ff:12.7\nClass:\tSystem peripheral\nVendor:\tIntel Corporation\nDevice:\tDevice 7848\nRev:\t10\n\nSlot:\t0000:ff:13.0\nClass:\tSystem peripheral\nVendor:\tIntel Corporation\nDevice:\tDevice 7833\nSVendor:\tIntel Corporation\nSDevice:\tDevice 35cb\nRev:\t10\nDriver:\tknl_uncore\n\nSlot:\t0000:ff:13.1\nClass:\tSystem peripheral\nVendor:\tIntel Corporation\nDevice:\tDevice 7839\nSVendor:\tIntel Corporation\nSDevice:\tDevice 35cb\nRev:\t10\n\nSlot:\t0000:ff:13.2\nClass:\tSystem peripheral\nVendor:\tIntel Corporation\nDevice:\tDevice 781f\nSVendor:\tIntel Corporation\nSDevice:\tDevice 35cb\nRev:\t10\n\nSlot:\t0000:ff:13.5\nClass:\tSystem peripheral\nVendor:\tIntel Corporation\nDevice:\tDevice 7849\nRev:\t10\n\nSlot:\t0000:ff:13.6\nClass:\tSystem peripheral\nVendor:\tIntel Corporation\nDevice:\tDevice 7849\nRev:\t10\n\nSlot:\t0000:ff:13.7\nClass:\tSystem peripheral\nVendor:\tIntel Corporation\nDevice:\tDevice 7849\nRev:\t10\n\nSlot:\t0000:ff:14.0\nClass:\tSystem peripheral\nVendor:\tIntel Corporation\nDevice:\tDevice 7833\nSVendor:\tIntel Corporation\nSDevice:\tDevice 35cb\nRev:\t10\nDriver:\tknl_uncore\n\nSlot:\t0000:ff:14.1\nClass:\tSystem peripheral\nVendor:\tIntel Corporation\nDevice:\tDevice 7839\nSVendor:\tIntel Corporation\nSDevice:\tDevice 35cb\nRev:\t10\n\nSlot:\t0000:ff:14.2\nClass:\tSystem peripheral\nVendor:\tIntel Corporation\nDevice:\tDevice 781f\nSVendor:\tIntel Corporation\nSDevice:\tDevice 35cb\nRev:\t10\n\nSlot:\t0000:ff:14.6\nClass:\tSystem peripheral\nVendor:\tIntel Corporation\nDevice:\tDevice 7845\nRev:\t10\n\nSlot:\t0000:ff:14.7\nClass:\tSystem peripheral\nVendor:\tIntel Corporation\nDevice:\tDevice 7846\nRev:\t10\n\nSlot:\t0000:ff:15.0\nClass:\tSystem peripheral\nVendor:\tIntel Corporation\nDevice:\tDevice 7833\nSVendor:\tIntel Corporation\nSDevice:\tDevice 35cb\nRev:\t10\nDriver:\tknl_uncore\n\nSlot:\t0000:ff:15.1\nClass:\tSystem peripheral\nVendor:\tIntel Corporation\nDevice:\tDevice 7839\nSVendor:\tIntel Corporation\nSDevice:\tDevice 35cb\nRev:\t10\n\nSlot:\t0000:ff:15.2\nClass:\tSystem peripheral\nVendor:\tIntel Corporation\nDevice:\tDevice 781f\nSVendor:\tIntel Corporation\nSDevice:\tDevice 35cb\nRev:\t10\n\nSlot:\t0000:ff:15.6\nClass:\tSystem peripheral\nVendor:\tIntel Corporation\nDevice:\tDevice 7845\nRev:\t10\n\nSlot:\t0000:ff:15.7\nClass:\tSystem peripheral\nVendor:\tIntel Corporation\nDevice:\tDevice 7847\nRev:\t10\n\nSlot:\t0000:ff:16.0\nClass:\tSystem peripheral\nVendor:\tIntel Corporation\nDevice:\tDevice 7833\nSVendor:\tIntel Corporation\nSDevice:\tDevice 35cb\nRev:\t10\nDriver:\tknl_uncore\n\nSlot:\t0000:ff:16.1\nClass:\tSystem peripheral\nVendor:\tIntel Corporation\nDevice:\tDevice 7839\nSVendor:\tIntel Corporation\nSDevice:\tDevice 35cb\nRev:\t10\n\nSlot:\t0000:ff:16.2\nClass:\tSystem peripheral\nVendor:\tIntel Corporation\nDevice:\tDevice 781f\nSVendor:\tIntel Corporation\nSDevice:\tDevice 35cb\nRev:\t10\n\nSlot:\t0000:ff:18.0\nClass:\tSystem peripheral\nVendor:\tIntel Corporation\nDevice:\tDevice 7831\nSVendor:\tIntel Corporation\nSDevice:\tDevice 35cb\nRev:\t10\n\nSlot:\t0000:ff:18.1\nClass:\tSystem peripheral\nVendor:\tIntel Corporation\nDevice:\tDevice 7837\nSVendor:\tIntel Corporation\nSDevice:\tDevice 35cb\nRev:\t10\n\nSlot:\t0000:ff:18.2\nClass:\tSystem peripheral\nVendor:\tIntel Corporation\nDevice:\tDevice 7835\nSVendor:\tIntel Corporation\nSDevice:\tDevice 35cb\nRev:\t10\nDriver:\tknl_uncore\n\nSlot:\t0000:ff:19.0\nClass:\tSystem peripheral\nVendor:\tIntel Corporation\nDevice:\tDevice 7831\nSVendor:\tIntel Corporation\nSDevice:\tDevice 35cb\nRev:\t10\n\nSlot:\t0000:ff:19.1\nClass:\tSystem peripheral\nVendor:\tIntel Corporation\nDevice:\tDevice 7837\nSVendor:\tIntel Corporation\nSDevice:\tDevice 35cb\nRev:\t10\n\nSlot:\t0000:ff:19.2\nClass:\tSystem peripheral\nVendor:\tIntel Corporation\nDevice:\tDevice 7835\nSVendor:\tIntel Corporation\nSDevice:\tDevice 35cb\nRev:\t10\nDriver:\tknl_uncore\n\nSlot:\t0000:ff:1a.0\nClass:\tSystem peripheral\nVendor:\tIntel Corporation\nDevice:\tDevice 7831\nSVendor:\tIntel Corporation\nSDevice:\tDevice 35cb\nRev:\t10\n\nSlot:\t0000:ff:1a.1\nClass:\tSystem peripheral\nVendor:\tIntel Corporation\nDevice:\tDevice 7837\nSVendor:\tIntel Corporation\nSDevice:\tDevice 35cb\nRev:\t10\n\nSlot:\t0000:ff:1a.2\nClass:\tSystem peripheral\nVendor:\tIntel Corporation\nDevice:\tDevice 7835\nSVendor:\tIntel Corporation\nSDevice:\tDevice 35cb\nRev:\t10\nDriver:\tknl_uncore\n\nSlot:\t0000:ff:1b.0\nClass:\tSystem peripheral\nVendor:\tIntel Corporation\nDevice:\tDevice 7831\nSVendor:\tIntel Corporation\nSDevice:\tDevice 35cb\nRev:\t10\n\nSlot:\t0000:ff:1b.1\nClass:\tSystem peripheral\nVendor:\tIntel Corporation\nDevice:\tDevice 7837\nSVendor:\tIntel Corporation\nSDevice:\tDevice 35cb\nRev:\t10\n\nSlot:\t0000:ff:1b.2\nClass:\tSystem peripheral\nVendor:\tIntel Corporation\nDevice:\tDevice 7835\nSVendor:\tIntel Corporation\nSDevice:\tDevice 35cb\nRev:\t10\nDriver:\tknl_uncore\n\nSlot:\t0000:ff:1c.0\nClass:\tSystem peripheral\nVendor:\tIntel Corporation\nDevice:\tDevice 7831\nSVendor:\tIntel Corporation\nSDevice:\tDevice 35cb\nRev:\t10\n\nSlot:\t0000:ff:1c.1\nClass:\tSystem peripheral\nVendor:\tIntel Corporation\nDevice:\tDevice 7837\nSVendor:\tIntel Corporation\nSDevice:\tDevice 35cb\nRev:\t10\n\nSlot:\t0000:ff:1c.2\nClass:\tSystem peripheral\nVendor:\tIntel Corporation\nDevice:\tDevice 7835\nSVendor:\tIntel Corporation\nSDevice:\tDevice 35cb\nRev:\t10\nDriver:\tknl_uncore\n\nSlot:\t0000:ff:1d.0\nClass:\tSystem peripheral\nVendor:\tIntel Corporation\nDevice:\tDevice 7831\nSVendor:\tIntel Corporation\nSDevice:\tDevice 35cb\nRev:\t10\n\nSlot:\t0000:ff:1d.1\nClass:\tSystem peripheral\nVendor:\tIntel Corporation\nDevice:\tDevice 7837\nSVendor:\tIntel Corporation\nSDevice:\tDevice 35cb\nRev:\t10\n\nSlot:\t0000:ff:1d.2\nClass:\tSystem peripheral\nVendor:\tIntel Corporation\nDevice:\tDevice 7835\nSVendor:\tIntel Corporation\nSDevice:\tDevice 35cb\nRev:\t10\nDriver:\tknl_uncore\n\nSlot:\t0000:ff:1e.0\nClass:\tSystem peripheral\nVendor:\tIntel Corporation\nDevice:\tDevice 7831\nSVendor:\tIntel Corporation\nSDevice:\tDevice 35cb\nRev:\t10\n\nSlot:\t0000:ff:1e.1\nClass:\tSystem peripheral\nVendor:\tIntel Corporation\nDevice:\tDevice 7837\nSVendor:\tIntel Corporation\nSDevice:\tDevice 35cb\nRev:\t10\n\nSlot:\t0000:ff:1e.2\nClass:\tSystem peripheral\nVendor:\tIntel Corporation\nDevice:\tDevice 7835\nSVendor:\tIntel Corporation\nSDevice:\tDevice 35cb\nRev:\t10\nDriver:\tknl_uncore\n\nSlot:\t0000:ff:1f.0\nClass:\tSystem peripheral\nVendor:\tIntel Corporation\nDevice:\tDevice 7831\nSVendor:\tIntel Corporation\nSDevice:\tDevice 35cb\nRev:\t10\n\nSlot:\t0000:ff:1f.1\nClass:\tSystem peripheral\nVendor:\tIntel Corporation\nDevice:\tDevice 7837\nSVendor:\tIntel Corporation\nSDevice:\tDevice 35cb\nRev:\t10\n\nSlot:\t0000:ff:1f.2\nClass:\tSystem peripheral\nVendor:\tIntel Corporation\nDevice:\tDevice 7835\nSVendor:\tIntel Corporation\nSDevice:\tDevice 35cb\nRev:\t10\nDriver:\tknl_uncore\n\n\n'
p68
sS'numactl --hardware'
p69
S'available: 2 nodes (0-1)\nnode 0 cpus: 0 1 2 3 4 5 6 7 8 9 10 11 12 13 14 15 16 17 18 19 20 21 22 23 24 25 26 27 28 29 30 31 32 33 34 35 36 37 38 39 40 41 42 43 44 45 46 47 48 49 50 51 52 53 54 55 56 57 58 59 60 61 62 63 64 65 66 67 68 69 70 71 72 73 74 75 76 77 78 79 80 81 82 83 84 85 86 87 88 89 90 91 92 93 94 95 96 97 98 99 100 101 102 103 104 105 106 107 108 109 110 111 112 113 114 115 116 117 118 119 120 121 122 123 124 125 126 127 128 129 130 131 132 133 134 135 136 137 138 139 140 141 142 143 144 145 146 147 148 149 150 151 152 153 154 155 156 157 158 159 160 161 162 163 164 165 166 167 168 169 170 171 172 173 174 175 176 177 178 179 180 181 182 183 184 185 186 187 188 189 190 191 192 193 194 195 196 197 198 199 200 201 202 203 204 205 206 207 208 209 210 211 212 213 214 215 216 217 218 219 220 221 222 223 224 225 226 227 228 229 230 231 232 233 234 235 236 237 238 239 240 241 242 243 244 245 246 247 248 249 250 251 252 253 254 255 256 257 258 259 260 261 262 263 264 265 266 267 268 269 270 271\nnode 0 size: 96621 MB\nnode 0 free: 95661 MB\nnode 1 cpus:\nnode 1 size: 16125 MB\nnode 1 free: 15928 MB\nnode distances:\nnode   0   1 \n  0:  10  31 \n  1:  31  10 \n\n'
p70
sS'dmidecode -t slot'
p71
S'# dmidecode 3.0\nScanning /dev/mem for entry point.\n\n/sys/firmware/dmi/tables/smbios_entry_point: Permission denied\n/dev/mem: Permission denied\n'
p72
sS'cat /proc/cmdline'
p73
S'BOOT_IMAGE=/boot/vmlinuz-4.4.59-92.17-default root=UUID=7269a146-8a5a-47e6-af8e-d40335ac1e72 crashkernel=auto intel_iommu=on hugepagesz=2048k hugepages=0 hugepagesz=1048576k hugepages=0 splash=silent quiet showopts resume=/dev/sda1 splash=silent quiet showopts\n\n'
p74
sS'uname --hardware-platform'
p75
S'x86_64\n\n'
p76
sS'dmidecode -t memory'
p77
S'# dmidecode 3.0\nScanning /dev/mem for entry point.\n\n/sys/firmware/dmi/tables/smbios_entry_point: Permission denied\n/dev/mem: Permission denied\n'
p78
sS'uname --operating-system'
p79
S'GNU/Linux\n\n'
p80
sS'dmidecode -t cache'
p81
S'# dmidecode 3.0\nScanning /dev/mem for entry point.\n\n/sys/firmware/dmi/tables/smbios_entry_point: Permission denied\n/dev/mem: Permission denied\n'
p82
sS'dmidecode -t connector'
p83
S'# dmidecode 3.0\nScanning /dev/mem for entry point.\n\n/sys/firmware/dmi/tables/smbios_entry_point: Permission denied\n/dev/mem: Permission denied\n'
p84
sS'dmidecode -t system'
p85
S'# dmidecode 3.0\nScanning /dev/mem for entry point.\n\n/sys/firmware/dmi/tables/smbios_entry_point: Permission denied\n/dev/mem: Permission denied\n'
p86
sS'uname --nodename'
p87
S'Perf-KNL-D-B0-34tiles-8MCDRAM-03\n\n'
p88
ssbsbsS'_xName'
p89
(dp90
S'linpack'
p91
S'matrix_size'
p92
sS'stream'
p93
S'omp_num_threads'
p94
sS'libxsmm_conv'
p95
g94
sS'dgemm'
p96
S'K_size'
p97
sS'hpcg'
p98
S'problem_size'
p99
sS'hplinpack'
p100
g99
sS'sgemm'
p101
g97
sS'fio'
p102
S'size'
p103
sS'mkl_conv'
p104
g94
ssS'_store'
p105
(dp106
g91
(dp107
S'local__mcdram_7250_SuSE-12_micperf-1.6.0_local_scaling'
p108
(lp109
g1
(cmicp.stats
Stats
p110
g3
NtRp111
(dp112
S'params'
p113
g1
(cmicp.params
Params
p114
g3
NtRp115
(dp116
S'_paramNames'
p117
(lp118
g94
ag92
aS'num_rep'
p119
aS'lead_dim'
p120
asS'_defaults'
p121
(dp122
g94
S'68'
p123
sg120
S'36928'
p124
sg92
S'36864'
p125
sg119
S'3'
ssS'_params'
p126
(dp127
g94
S'68'
p128
sg120
S'2112'
p129
sg92
S'2048'
p130
sg119
S'3'
ssS'_paramQuiet'
p131
(lp132
g94
asbsS'perf'
p133
(dp134
S'Computation.Avg'
p135
(dp136
S'units'
p137
S'GFlops'
p138
sS'rollup'
p139
I01
sS'value'
p140
S'153.3155'
p141
sssS'desc'
p142
S'2048 x 2048 MKL DP LINPACK with 68 threads and 3 iterations'
p143
sbag1
(g110
g3
NtRp144
(dp145
g113
g1
(g114
g3
NtRp146
(dp147
g117
(lp148
g94
ag92
ag119
ag120
asg121
(dp149
g94
g123
sg120
g124
sg92
g125
sg119
S'3'
ssg126
(dp150
g94
S'68'
p151
sg120
S'4160'
p152
sg92
S'4096'
p153
sg119
S'3'
ssg131
(lp154
g94
asbsg133
(dp155
g135
(dp156
g137
g138
sg139
I01
sg140
S'465.9205'
p157
sssg142
S'4096 x 4096 MKL DP LINPACK with 68 threads and 3 iterations'
p158
sbag1
(g110
g3
NtRp159
(dp160
g113
g1
(g114
g3
NtRp161
(dp162
g117
(lp163
g94
ag92
ag119
ag120
asg121
(dp164
g94
g123
sg120
g124
sg92
g125
sg119
S'3'
ssg126
(dp165
g94
S'68'
p166
sg120
S'6208'
p167
sg92
S'6144'
p168
sg119
S'3'
ssg131
(lp169
g94
asbsg133
(dp170
g135
(dp171
g137
g138
sg139
I01
sg140
S'853.8681'
p172
sssg142
S'6144 x 6144 MKL DP LINPACK with 68 threads and 3 iterations'
p173
sbag1
(g110
g3
NtRp174
(dp175
g113
g1
(g114
g3
NtRp176
(dp177
g117
(lp178
g94
ag92
ag119
ag120
asg121
(dp179
g94
g123
sg120
g124
sg92
g125
sg119
S'3'
ssg126
(dp180
g94
S'68'
p181
sg120
S'8256'
p182
sg92
S'8192'
p183
sg119
S'3'
ssg131
(lp184
g94
asbsg133
(dp185
g135
(dp186
g137
g138
sg139
I01
sg140
S'1131.5531'
p187
sssg142
S'8192 x 8192 MKL DP LINPACK with 68 threads and 3 iterations'
p188
sbag1
(g110
g3
NtRp189
(dp190
g113
g1
(g114
g3
NtRp191
(dp192
g117
(lp193
g94
ag92
ag119
ag120
asg121
(dp194
g94
g123
sg120
g124
sg92
g125
sg119
S'3'
ssg126
(dp195
g94
S'68'
p196
sg120
S'10304'
p197
sg92
S'10240'
p198
sg119
S'3'
ssg131
(lp199
g94
asbsg133
(dp200
g135
(dp201
g137
g138
sg139
I01
sg140
S'1345.8331'
p202
sssg142
S'10240 x 10240 MKL DP LINPACK with 68 threads and 3 iterations'
p203
sbag1
(g110
g3
NtRp204
(dp205
g113
g1
(g114
g3
NtRp206
(dp207
g117
(lp208
g94
ag92
ag119
ag120
asg121
(dp209
g94
g123
sg120
g124
sg92
g125
sg119
S'3'
ssg126
(dp210
g94
S'68'
p211
sg120
S'12352'
p212
sg92
S'12288'
p213
sg119
S'3'
ssg131
(lp214
g94
asbsg133
(dp215
g135
(dp216
g137
g138
sg139
I01
sg140
S'1479.2131'
p217
sssg142
S'12288 x 12288 MKL DP LINPACK with 68 threads and 3 iterations'
p218
sbag1
(g110
g3
NtRp219
(dp220
g113
g1
(g114
g3
NtRp221
(dp222
g117
(lp223
g94
ag92
ag119
ag120
asg121
(dp224
g94
g123
sg120
g124
sg92
g125
sg119
S'3'
ssg126
(dp225
g94
S'68'
p226
sg120
S'14400'
p227
sg92
S'14336'
p228
sg119
S'3'
ssg131
(lp229
g94
asbsg133
(dp230
g135
(dp231
g137
g138
sg139
I01
sg140
S'1544.0551'
p232
sssg142
S'14336 x 14336 MKL DP LINPACK with 68 threads and 3 iterations'
p233
sbag1
(g110
g3
NtRp234
(dp235
g113
g1
(g114
g3
NtRp236
(dp237
g117
(lp238
g94
ag92
ag119
ag120
asg121
(dp239
g94
g123
sg120
g124
sg92
g125
sg119
S'3'
ssg126
(dp240
g94
S'68'
p241
sg120
S'16448'
p242
sg92
S'16384'
p243
sg119
S'3'
ssg131
(lp244
g94
asbsg133
(dp245
g135
(dp246
g137
g138
sg139
I01
sg140
S'1602.8795'
p247
sssg142
S'16384 x 16384 MKL DP LINPACK with 68 threads and 3 iterations'
p248
sbag1
(g110
g3
NtRp249
(dp250
g113
g1
(g114
g3
NtRp251
(dp252
g117
(lp253
g94
ag92
ag119
ag120
asg121
(dp254
g94
g123
sg120
g124
sg92
g125
sg119
S'3'
ssg126
(dp255
g94
S'68'
p256
sg120
S'18496'
p257
sg92
S'18432'
p258
sg119
S'3'
ssg131
(lp259
g94
asbsg133
(dp260
g135
(dp261
g137
g138
sg139
I01
sg140
S'1652.9870'
p262
sssg142
S'18432 x 18432 MKL DP LINPACK with 68 threads and 3 iterations'
p263
sbag1
(g110
g3
NtRp264
(dp265
g113
g1
(g114
g3
NtRp266
(dp267
g117
(lp268
g94
ag92
ag119
ag120
asg121
(dp269
g94
g123
sg120
g124
sg92
g125
sg119
S'3'
ssg126
(dp270
g94
S'68'
p271
sg120
S'20544'
p272
sg92
S'20480'
p273
sg119
S'3'
ssg131
(lp274
g94
asbsg133
(dp275
g135
(dp276
g137
g138
sg139
I01
sg140
S'1674.2026'
p277
sssg142
S'20480 x 20480 MKL DP LINPACK with 68 threads and 3 iterations'
p278
sbag1
(g110
g3
NtRp279
(dp280
g113
g1
(g114
g3
NtRp281
(dp282
g117
(lp283
g94
ag92
ag119
ag120
asg121
(dp284
g94
g123
sg120
g124
sg92
g125
sg119
S'3'
ssg126
(dp285
g94
S'68'
p286
sg120
S'22592'
p287
sg92
S'22528'
p288
sg119
S'3'
ssg131
(lp289
g94
asbsg133
(dp290
g135
(dp291
g137
g138
sg139
I01
sg140
S'1662.2997'
p292
sssg142
S'22528 x 22528 MKL DP LINPACK with 68 threads and 3 iterations'
p293
sbag1
(g110
g3
NtRp294
(dp295
g113
g1
(g114
g3
NtRp296
(dp297
g117
(lp298
g94
ag92
ag119
ag120
asg121
(dp299
g94
g123
sg120
g124
sg92
g125
sg119
S'3'
ssg126
(dp300
g94
S'68'
p301
sg120
S'24640'
p302
sg92
S'24576'
p303
sg119
S'3'
ssg131
(lp304
g94
asbsg133
(dp305
g135
(dp306
g137
g138
sg139
I01
sg140
S'1706.9484'
p307
sssg142
S'24576 x 24576 MKL DP LINPACK with 68 threads and 3 iterations'
p308
sbag1
(g110
g3
NtRp309
(dp310
g113
g1
(g114
g3
NtRp311
(dp312
g117
(lp313
g94
ag92
ag119
ag120
asg121
(dp314
g94
g123
sg120
g124
sg92
g125
sg119
S'3'
ssg126
(dp315
g94
S'68'
p316
sg120
S'26688'
p317
sg92
S'26624'
p318
sg119
S'3'
ssg131
(lp319
g94
asbsg133
(dp320
g135
(dp321
g137
g138
sg139
I01
sg140
S'1715.9090'
p322
sssg142
S'26624 x 26624 MKL DP LINPACK with 68 threads and 3 iterations'
p323
sbag1
(g110
g3
NtRp324
(dp325
g113
g1
(g114
g3
NtRp326
(dp327
g117
(lp328
g94
ag92
ag119
ag120
asg121
(dp329
g94
g123
sg120
g124
sg92
g125
sg119
S'3'
ssg126
(dp330
g94
S'68'
p331
sg120
S'28736'
p332
sg92
S'28672'
p333
sg119
S'3'
ssg131
(lp334
g94
asbsg133
(dp335
g135
(dp336
g137
g138
sg139
I01
sg140
S'1724.4141'
p337
sssg142
S'28672 x 28672 MKL DP LINPACK with 68 threads and 3 iterations'
p338
sbag1
(g110
g3
NtRp339
(dp340
g113
g1
(g114
g3
NtRp341
(dp342
g117
(lp343
g94
ag92
ag119
ag120
asg121
(dp344
g94
g123
sg120
g124
sg92
g125
sg119
S'3'
ssg126
(dp345
g94
S'68'
p346
sg120
S'30784'
p347
sg92
S'30720'
p348
sg119
S'3'
ssg131
(lp349
g94
asbsg133
(dp350
g135
(dp351
g137
g138
sg139
I01
sg140
S'1741.6445'
p352
sssg142
S'30720 x 30720 MKL DP LINPACK with 68 threads and 3 iterations'
p353
sbag1
(g110
g3
NtRp354
(dp355
g113
g1
(g114
g3
NtRp356
(dp357
g117
(lp358
g94
ag92
ag119
ag120
asg121
(dp359
g94
g123
sg120
g124
sg92
g125
sg119
S'3'
ssg126
(dp360
g94
S'68'
p361
sg120
S'32832'
p362
sg92
S'32768'
p363
sg119
S'3'
ssg131
(lp364
g94
asbsg133
(dp365
g135
(dp366
g137
g138
sg139
I01
sg140
S'1733.4909'
p367
sssg142
S'32768 x 32768 MKL DP LINPACK with 68 threads and 3 iterations'
p368
sbag1
(g110
g3
NtRp369
(dp370
g113
g1
(g114
g3
NtRp371
(dp372
g117
(lp373
g94
ag92
ag119
ag120
asg121
(dp374
g94
g123
sg120
g124
sg92
g125
sg119
S'3'
ssg126
(dp375
g94
S'68'
p376
sg120
S'34880'
p377
sg92
S'34816'
p378
sg119
S'3'
ssg131
(lp379
g94
asbsg133
(dp380
g135
(dp381
g137
g138
sg139
I01
sg140
S'1757.0245'
p382
sssg142
S'34816 x 34816 MKL DP LINPACK with 68 threads and 3 iterations'
p383
sbag1
(g110
g3
NtRp384
(dp385
g113
g1
(g114
g3
NtRp386
(dp387
g117
(lp388
g94
ag92
ag119
ag120
asg121
(dp389
g94
g123
sg120
g124
sg92
g125
sg119
S'3'
ssg126
(dp390
g94
S'68'
p391
sg120
S'36928'
p392
sg92
S'36864'
p393
sg119
S'3'
ssg131
(lp394
g94
asbsg133
(dp395
g135
(dp396
g137
g138
sg139
I01
sg140
S'1755.0083'
p397
sssg142
S'36864 x 36864 MKL DP LINPACK with 68 threads and 3 iterations'
p398
sbassg93
(dp399
S'local__mcdram_7250_SuSE-12_micperf-1.6.0_local_scaling'
p400
(lp401
g1
(g110
g3
NtRp402
(dp403
g113
g1
(g114
g3
NtRp404
(dp405
g117
(lp406
g94
asg121
(dp407
g94
S'68'
p408
ssg126
(dp409
g94
S'1'
ssg131
(lp410
g94
asbsg133
(dp411
S'Task.Bandwidth'
p412
(dp413
g137
S'GB/s'
p414
sg139
I01
sg140
S'15.5124'
p415
sssg142
S'STREAM version $Revision: 5.10 $ with 1 threads'
p416
sbag1
(g110
g3
NtRp417
(dp418
g113
g1
(g114
g3
NtRp419
(dp420
g117
(lp421
g94
asg121
(dp422
g94
g408
ssg126
(dp423
g94
S'2'
ssg131
(lp424
g94
asbsg133
(dp425
g412
(dp426
g137
g414
sg139
I01
sg140
S'19.657'
p427
sssg142
S'STREAM version $Revision: 5.10 $ with 2 threads'
p428
sbag1
(g110
g3
NtRp429
(dp430
g113
g1
(g114
g3
NtRp431
(dp432
g117
(lp433
g94
asg121
(dp434
g94
g408
ssg126
(dp435
g94
S'3'
ssg131
(lp436
g94
asbsg133
(dp437
g412
(dp438
g137
g414
sg139
I01
sg140
S'28.4803'
p439
sssg142
S'STREAM version $Revision: 5.10 $ with 3 threads'
p440
sbag1
(g110
g3
NtRp441
(dp442
g113
g1
(g114
g3
NtRp443
(dp444
g117
(lp445
g94
asg121
(dp446
g94
g408
ssg126
(dp447
g94
S'4'
ssg131
(lp448
g94
asbsg133
(dp449
g412
(dp450
g137
g414
sg139
I01
sg140
S'37.9448'
p451
sssg142
S'STREAM version $Revision: 5.10 $ with 4 threads'
p452
sbag1
(g110
g3
NtRp453
(dp454
g113
g1
(g114
g3
NtRp455
(dp456
g117
(lp457
g94
asg121
(dp458
g94
g408
ssg126
(dp459
g94
S'5'
ssg131
(lp460
g94
asbsg133
(dp461
g412
(dp462
g137
g414
sg139
I01
sg140
S'47.4337'
p463
sssg142
S'STREAM version $Revision: 5.10 $ with 5 threads'
p464
sbag1
(g110
g3
NtRp465
(dp466
g113
g1
(g114
g3
NtRp467
(dp468
g117
(lp469
g94
asg121
(dp470
g94
g408
ssg126
(dp471
g94
S'6'
ssg131
(lp472
g94
asbsg133
(dp473
g412
(dp474
g137
g414
sg139
I01
sg140
S'56.9312'
p475
sssg142
S'STREAM version $Revision: 5.10 $ with 6 threads'
p476
sbag1
(g110
g3
NtRp477
(dp478
g113
g1
(g114
g3
NtRp479
(dp480
g117
(lp481
g94
asg121
(dp482
g94
g408
ssg126
(dp483
g94
S'7'
ssg131
(lp484
g94
asbsg133
(dp485
g412
(dp486
g137
g414
sg139
I01
sg140
S'66.402'
p487
sssg142
S'STREAM version $Revision: 5.10 $ with 7 threads'
p488
sbag1
(g110
g3
NtRp489
(dp490
g113
g1
(g114
g3
NtRp491
(dp492
g117
(lp493
g94
asg121
(dp494
g94
g408
ssg126
(dp495
g94
S'8'
ssg131
(lp496
g94
asbsg133
(dp497
g412
(dp498
g137
g414
sg139
I01
sg140
S'75.7989'
p499
sssg142
S'STREAM version $Revision: 5.10 $ with 8 threads'
p500
sbag1
(g110
g3
NtRp501
(dp502
g113
g1
(g114
g3
NtRp503
(dp504
g117
(lp505
g94
asg121
(dp506
g94
g408
ssg126
(dp507
g94
S'9'
ssg131
(lp508
g94
asbsg133
(dp509
g412
(dp510
g137
g414
sg139
I01
sg140
S'85.2763'
p511
sssg142
S'STREAM version $Revision: 5.10 $ with 9 threads'
p512
sbag1
(g110
g3
NtRp513
(dp514
g113
g1
(g114
g3
NtRp515
(dp516
g117
(lp517
g94
asg121
(dp518
g94
g408
ssg126
(dp519
g94
S'10'
p520
ssg131
(lp521
g94
asbsg133
(dp522
g412
(dp523
g137
g414
sg139
I01
sg140
S'94.657'
p524
sssg142
S'STREAM version $Revision: 5.10 $ with 10 threads'
p525
sbag1
(g110
g3
NtRp526
(dp527
g113
g1
(g114
g3
NtRp528
(dp529
g117
(lp530
g94
asg121
(dp531
g94
g408
ssg126
(dp532
g94
S'11'
p533
ssg131
(lp534
g94
asbsg133
(dp535
g412
(dp536
g137
g414
sg139
I01
sg140
S'104.1996'
p537
sssg142
S'STREAM version $Revision: 5.10 $ with 11 threads'
p538
sbag1
(g110
g3
NtRp539
(dp540
g113
g1
(g114
g3
NtRp541
(dp542
g117
(lp543
g94
asg121
(dp544
g94
g408
ssg126
(dp545
g94
S'12'
p546
ssg131
(lp547
g94
asbsg133
(dp548
g412
(dp549
g137
g414
sg139
I01
sg140
S'113.5354'
p550
sssg142
S'STREAM version $Revision: 5.10 $ with 12 threads'
p551
sbag1
(g110
g3
NtRp552
(dp553
g113
g1
(g114
g3
NtRp554
(dp555
g117
(lp556
g94
asg121
(dp557
g94
g408
ssg126
(dp558
g94
S'13'
p559
ssg131
(lp560
g94
asbsg133
(dp561
g412
(dp562
g137
g414
sg139
I01
sg140
S'122.9194'
p563
sssg142
S'STREAM version $Revision: 5.10 $ with 13 threads'
p564
sbag1
(g110
g3
NtRp565
(dp566
g113
g1
(g114
g3
NtRp567
(dp568
g117
(lp569
g94
asg121
(dp570
g94
g408
ssg126
(dp571
g94
S'14'
p572
ssg131
(lp573
g94
asbsg133
(dp574
g412
(dp575
g137
g414
sg139
I01
sg140
S'132.2777'
p576
sssg142
S'STREAM version $Revision: 5.10 $ with 14 threads'
p577
sbag1
(g110
g3
NtRp578
(dp579
g113
g1
(g114
g3
NtRp580
(dp581
g117
(lp582
g94
asg121
(dp583
g94
g408
ssg126
(dp584
g94
S'15'
p585
ssg131
(lp586
g94
asbsg133
(dp587
g412
(dp588
g137
g414
sg139
I01
sg140
S'141.7481'
p589
sssg142
S'STREAM version $Revision: 5.10 $ with 15 threads'
p590
sbag1
(g110
g3
NtRp591
(dp592
g113
g1
(g114
g3
NtRp593
(dp594
g117
(lp595
g94
asg121
(dp596
g94
g408
ssg126
(dp597
g94
S'16'
p598
ssg131
(lp599
g94
asbsg133
(dp600
g412
(dp601
g137
g414
sg139
I01
sg140
S'151.2099'
p602
sssg142
S'STREAM version $Revision: 5.10 $ with 16 threads'
p603
sbag1
(g110
g3
NtRp604
(dp605
g113
g1
(g114
g3
NtRp606
(dp607
g117
(lp608
g94
asg121
(dp609
g94
g408
ssg126
(dp610
g94
S'17'
p611
ssg131
(lp612
g94
asbsg133
(dp613
g412
(dp614
g137
g414
sg139
I01
sg140
S'160.5355'
p615
sssg142
S'STREAM version $Revision: 5.10 $ with 17 threads'
p616
sbag1
(g110
g3
NtRp617
(dp618
g113
g1
(g114
g3
NtRp619
(dp620
g117
(lp621
g94
asg121
(dp622
g94
g408
ssg126
(dp623
g94
S'18'
p624
ssg131
(lp625
g94
asbsg133
(dp626
g412
(dp627
g137
g414
sg139
I01
sg140
S'169.7794'
p628
sssg142
S'STREAM version $Revision: 5.10 $ with 18 threads'
p629
sbag1
(g110
g3
NtRp630
(dp631
g113
g1
(g114
g3
NtRp632
(dp633
g117
(lp634
g94
asg121
(dp635
g94
g408
ssg126
(dp636
g94
S'19'
p637
ssg131
(lp638
g94
asbsg133
(dp639
g412
(dp640
g137
g414
sg139
I01
sg140
S'178.8775'
p641
sssg142
S'STREAM version $Revision: 5.10 $ with 19 threads'
p642
sbag1
(g110
g3
NtRp643
(dp644
g113
g1
(g114
g3
NtRp645
(dp646
g117
(lp647
g94
asg121
(dp648
g94
g408
ssg126
(dp649
g94
S'20'
p650
ssg131
(lp651
g94
asbsg133
(dp652
g412
(dp653
g137
g414
sg139
I01
sg140
S'188.2382'
p654
sssg142
S'STREAM version $Revision: 5.10 $ with 20 threads'
p655
sbag1
(g110
g3
NtRp656
(dp657
g113
g1
(g114
g3
NtRp658
(dp659
g117
(lp660
g94
asg121
(dp661
g94
g408
ssg126
(dp662
g94
S'21'
p663
ssg131
(lp664
g94
asbsg133
(dp665
g412
(dp666
g137
g414
sg139
I01
sg140
S'197.6091'
p667
sssg142
S'STREAM version $Revision: 5.10 $ with 21 threads'
p668
sbag1
(g110
g3
NtRp669
(dp670
g113
g1
(g114
g3
NtRp671
(dp672
g117
(lp673
g94
asg121
(dp674
g94
g408
ssg126
(dp675
g94
S'22'
p676
ssg131
(lp677
g94
asbsg133
(dp678
g412
(dp679
g137
g414
sg139
I01
sg140
S'207.2327'
p680
sssg142
S'STREAM version $Revision: 5.10 $ with 22 threads'
p681
sbag1
(g110
g3
NtRp682
(dp683
g113
g1
(g114
g3
NtRp684
(dp685
g117
(lp686
g94
asg121
(dp687
g94
g408
ssg126
(dp688
g94
S'23'
p689
ssg131
(lp690
g94
asbsg133
(dp691
g412
(dp692
g137
g414
sg139
I01
sg140
S'216.553'
p693
sssg142
S'STREAM version $Revision: 5.10 $ with 23 threads'
p694
sbag1
(g110
g3
NtRp695
(dp696
g113
g1
(g114
g3
NtRp697
(dp698
g117
(lp699
g94
asg121
(dp700
g94
g408
ssg126
(dp701
g94
S'24'
p702
ssg131
(lp703
g94
asbsg133
(dp704
g412
(dp705
g137
g414
sg139
I01
sg140
S'225.5207'
p706
sssg142
S'STREAM version $Revision: 5.10 $ with 24 threads'
p707
sbag1
(g110
g3
NtRp708
(dp709
g113
g1
(g114
g3
NtRp710
(dp711
g117
(lp712
g94
asg121
(dp713
g94
g408
ssg126
(dp714
g94
S'25'
p715
ssg131
(lp716
g94
asbsg133
(dp717
g412
(dp718
g137
g414
sg139
I01
sg140
S'234.6464'
p719
sssg142
S'STREAM version $Revision: 5.10 $ with 25 threads'
p720
sbag1
(g110
g3
NtRp721
(dp722
g113
g1
(g114
g3
NtRp723
(dp724
g117
(lp725
g94
asg121
(dp726
g94
g408
ssg126
(dp727
g94
S'26'
p728
ssg131
(lp729
g94
asbsg133
(dp730
g412
(dp731
g137
g414
sg139
I01
sg140
S'243.9675'
p732
sssg142
S'STREAM version $Revision: 5.10 $ with 26 threads'
p733
sbag1
(g110
g3
NtRp734
(dp735
g113
g1
(g114
g3
NtRp736
(dp737
g117
(lp738
g94
asg121
(dp739
g94
g408
ssg126
(dp740
g94
S'27'
p741
ssg131
(lp742
g94
asbsg133
(dp743
g412
(dp744
g137
g414
sg139
I01
sg140
S'253.1216'
p745
sssg142
S'STREAM version $Revision: 5.10 $ with 27 threads'
p746
sbag1
(g110
g3
NtRp747
(dp748
g113
g1
(g114
g3
NtRp749
(dp750
g117
(lp751
g94
asg121
(dp752
g94
g408
ssg126
(dp753
g94
S'28'
p754
ssg131
(lp755
g94
asbsg133
(dp756
g412
(dp757
g137
g414
sg139
I01
sg140
S'262.112'
p758
sssg142
S'STREAM version $Revision: 5.10 $ with 28 threads'
p759
sbag1
(g110
g3
NtRp760
(dp761
g113
g1
(g114
g3
NtRp762
(dp763
g117
(lp764
g94
asg121
(dp765
g94
g408
ssg126
(dp766
g94
S'29'
p767
ssg131
(lp768
g94
asbsg133
(dp769
g412
(dp770
g137
g414
sg139
I01
sg140
S'271.2383'
p771
sssg142
S'STREAM version $Revision: 5.10 $ with 29 threads'
p772
sbag1
(g110
g3
NtRp773
(dp774
g113
g1
(g114
g3
NtRp775
(dp776
g117
(lp777
g94
asg121
(dp778
g94
g408
ssg126
(dp779
g94
S'30'
p780
ssg131
(lp781
g94
asbsg133
(dp782
g412
(dp783
g137
g414
sg139
I01
sg140
S'280.5946'
p784
sssg142
S'STREAM version $Revision: 5.10 $ with 30 threads'
p785
sbag1
(g110
g3
NtRp786
(dp787
g113
g1
(g114
g3
NtRp788
(dp789
g117
(lp790
g94
asg121
(dp791
g94
g408
ssg126
(dp792
g94
S'31'
p793
ssg131
(lp794
g94
asbsg133
(dp795
g412
(dp796
g137
g414
sg139
I01
sg140
S'289.0028'
p797
sssg142
S'STREAM version $Revision: 5.10 $ with 31 threads'
p798
sbag1
(g110
g3
NtRp799
(dp800
g113
g1
(g114
g3
NtRp801
(dp802
g117
(lp803
g94
asg121
(dp804
g94
g408
ssg126
(dp805
g94
S'32'
p806
ssg131
(lp807
g94
asbsg133
(dp808
g412
(dp809
g137
g414
sg139
I01
sg140
S'298.4274'
p810
sssg142
S'STREAM version $Revision: 5.10 $ with 32 threads'
p811
sbag1
(g110
g3
NtRp812
(dp813
g113
g1
(g114
g3
NtRp814
(dp815
g117
(lp816
g94
asg121
(dp817
g94
g408
ssg126
(dp818
g94
S'33'
p819
ssg131
(lp820
g94
asbsg133
(dp821
g412
(dp822
g137
g414
sg139
I01
sg140
S'306.9588'
p823
sssg142
S'STREAM version $Revision: 5.10 $ with 33 threads'
p824
sbag1
(g110
g3
NtRp825
(dp826
g113
g1
(g114
g3
NtRp827
(dp828
g117
(lp829
g94
asg121
(dp830
g94
g408
ssg126
(dp831
g94
S'34'
p832
ssg131
(lp833
g94
asbsg133
(dp834
g412
(dp835
g137
g414
sg139
I01
sg140
S'316.1163'
p836
sssg142
S'STREAM version $Revision: 5.10 $ with 34 threads'
p837
sbag1
(g110
g3
NtRp838
(dp839
g113
g1
(g114
g3
NtRp840
(dp841
g117
(lp842
g94
asg121
(dp843
g94
g408
ssg126
(dp844
g94
S'35'
p845
ssg131
(lp846
g94
asbsg133
(dp847
g412
(dp848
g137
g414
sg139
I01
sg140
S'324.9332'
p849
sssg142
S'STREAM version $Revision: 5.10 $ with 35 threads'
p850
sbag1
(g110
g3
NtRp851
(dp852
g113
g1
(g114
g3
NtRp853
(dp854
g117
(lp855
g94
asg121
(dp856
g94
g408
ssg126
(dp857
g94
S'36'
p858
ssg131
(lp859
g94
asbsg133
(dp860
g412
(dp861
g137
g414
sg139
I01
sg140
S'333.9961'
p862
sssg142
S'STREAM version $Revision: 5.10 $ with 36 threads'
p863
sbag1
(g110
g3
NtRp864
(dp865
g113
g1
(g114
g3
NtRp866
(dp867
g117
(lp868
g94
asg121
(dp869
g94
g408
ssg126
(dp870
g94
S'37'
p871
ssg131
(lp872
g94
asbsg133
(dp873
g412
(dp874
g137
g414
sg139
I01
sg140
S'342.1739'
p875
sssg142
S'STREAM version $Revision: 5.10 $ with 37 threads'
p876
sbag1
(g110
g3
NtRp877
(dp878
g113
g1
(g114
g3
NtRp879
(dp880
g117
(lp881
g94
asg121
(dp882
g94
g408
ssg126
(dp883
g94
S'38'
p884
ssg131
(lp885
g94
asbsg133
(dp886
g412
(dp887
g137
g414
sg139
I01
sg140
S'350.7623'
p888
sssg142
S'STREAM version $Revision: 5.10 $ with 38 threads'
p889
sbag1
(g110
g3
NtRp890
(dp891
g113
g1
(g114
g3
NtRp892
(dp893
g117
(lp894
g94
asg121
(dp895
g94
g408
ssg126
(dp896
g94
S'39'
p897
ssg131
(lp898
g94
asbsg133
(dp899
g412
(dp900
g137
g414
sg139
I01
sg140
S'359.0509'
p901
sssg142
S'STREAM version $Revision: 5.10 $ with 39 threads'
p902
sbag1
(g110
g3
NtRp903
(dp904
g113
g1
(g114
g3
NtRp905
(dp906
g117
(lp907
g94
asg121
(dp908
g94
g408
ssg126
(dp909
g94
S'40'
p910
ssg131
(lp911
g94
asbsg133
(dp912
g412
(dp913
g137
g414
sg139
I01
sg140
S'367.552'
p914
sssg142
S'STREAM version $Revision: 5.10 $ with 40 threads'
p915
sbag1
(g110
g3
NtRp916
(dp917
g113
g1
(g114
g3
NtRp918
(dp919
g117
(lp920
g94
asg121
(dp921
g94
g408
ssg126
(dp922
g94
S'41'
p923
ssg131
(lp924
g94
asbsg133
(dp925
g412
(dp926
g137
g414
sg139
I01
sg140
S'375.7408'
p927
sssg142
S'STREAM version $Revision: 5.10 $ with 41 threads'
p928
sbag1
(g110
g3
NtRp929
(dp930
g113
g1
(g114
g3
NtRp931
(dp932
g117
(lp933
g94
asg121
(dp934
g94
g408
ssg126
(dp935
g94
S'42'
p936
ssg131
(lp937
g94
asbsg133
(dp938
g412
(dp939
g137
g414
sg139
I01
sg140
S'384.3715'
p940
sssg142
S'STREAM version $Revision: 5.10 $ with 42 threads'
p941
sbag1
(g110
g3
NtRp942
(dp943
g113
g1
(g114
g3
NtRp944
(dp945
g117
(lp946
g94
asg121
(dp947
g94
g408
ssg126
(dp948
g94
S'43'
p949
ssg131
(lp950
g94
asbsg133
(dp951
g412
(dp952
g137
g414
sg139
I01
sg140
S'393.5282'
p953
sssg142
S'STREAM version $Revision: 5.10 $ with 43 threads'
p954
sbag1
(g110
g3
NtRp955
(dp956
g113
g1
(g114
g3
NtRp957
(dp958
g117
(lp959
g94
asg121
(dp960
g94
g408
ssg126
(dp961
g94
S'44'
p962
ssg131
(lp963
g94
asbsg133
(dp964
g412
(dp965
g137
g414
sg139
I01
sg140
S'402.7287'
p966
sssg142
S'STREAM version $Revision: 5.10 $ with 44 threads'
p967
sbag1
(g110
g3
NtRp968
(dp969
g113
g1
(g114
g3
NtRp970
(dp971
g117
(lp972
g94
asg121
(dp973
g94
g408
ssg126
(dp974
g94
S'45'
p975
ssg131
(lp976
g94
asbsg133
(dp977
g412
(dp978
g137
g414
sg139
I01
sg140
S'406.669'
p979
sssg142
S'STREAM version $Revision: 5.10 $ with 45 threads'
p980
sbag1
(g110
g3
NtRp981
(dp982
g113
g1
(g114
g3
NtRp983
(dp984
g117
(lp985
g94
asg121
(dp986
g94
g408
ssg126
(dp987
g94
S'46'
p988
ssg131
(lp989
g94
asbsg133
(dp990
g412
(dp991
g137
g414
sg139
I01
sg140
S'418.4225'
p992
sssg142
S'STREAM version $Revision: 5.10 $ with 46 threads'
p993
sbag1
(g110
g3
NtRp994
(dp995
g113
g1
(g114
g3
NtRp996
(dp997
g117
(lp998
g94
asg121
(dp999
g94
g408
ssg126
(dp1000
g94
S'47'
p1001
ssg131
(lp1002
g94
asbsg133
(dp1003
g412
(dp1004
g137
g414
sg139
I01
sg140
S'425.6095'
p1005
sssg142
S'STREAM version $Revision: 5.10 $ with 47 threads'
p1006
sbag1
(g110
g3
NtRp1007
(dp1008
g113
g1
(g114
g3
NtRp1009
(dp1010
g117
(lp1011
g94
asg121
(dp1012
g94
g408
ssg126
(dp1013
g94
S'48'
p1014
ssg131
(lp1015
g94
asbsg133
(dp1016
g412
(dp1017
g137
g414
sg139
I01
sg140
S'432.2052'
p1018
sssg142
S'STREAM version $Revision: 5.10 $ with 48 threads'
p1019
sbag1
(g110
g3
NtRp1020
(dp1021
g113
g1
(g114
g3
NtRp1022
(dp1023
g117
(lp1024
g94
asg121
(dp1025
g94
g408
ssg126
(dp1026
g94
S'49'
p1027
ssg131
(lp1028
g94
asbsg133
(dp1029
g412
(dp1030
g137
g414
sg139
I01
sg140
S'439.0983'
p1031
sssg142
S'STREAM version $Revision: 5.10 $ with 49 threads'
p1032
sbag1
(g110
g3
NtRp1033
(dp1034
g113
g1
(g114
g3
NtRp1035
(dp1036
g117
(lp1037
g94
asg121
(dp1038
g94
g408
ssg126
(dp1039
g94
S'50'
p1040
ssg131
(lp1041
g94
asbsg133
(dp1042
g412
(dp1043
g137
g414
sg139
I01
sg140
S'445.9987'
p1044
sssg142
S'STREAM version $Revision: 5.10 $ with 50 threads'
p1045
sbag1
(g110
g3
NtRp1046
(dp1047
g113
g1
(g114
g3
NtRp1048
(dp1049
g117
(lp1050
g94
asg121
(dp1051
g94
g408
ssg126
(dp1052
g94
S'51'
p1053
ssg131
(lp1054
g94
asbsg133
(dp1055
g412
(dp1056
g137
g414
sg139
I01
sg140
S'452.8327'
p1057
sssg142
S'STREAM version $Revision: 5.10 $ with 51 threads'
p1058
sbag1
(g110
g3
NtRp1059
(dp1060
g113
g1
(g114
g3
NtRp1061
(dp1062
g117
(lp1063
g94
asg121
(dp1064
g94
g408
ssg126
(dp1065
g94
S'52'
p1066
ssg131
(lp1067
g94
asbsg133
(dp1068
g412
(dp1069
g137
g414
sg139
I01
sg140
S'458.081'
p1070
sssg142
S'STREAM version $Revision: 5.10 $ with 52 threads'
p1071
sbag1
(g110
g3
NtRp1072
(dp1073
g113
g1
(g114
g3
NtRp1074
(dp1075
g117
(lp1076
g94
asg121
(dp1077
g94
g408
ssg126
(dp1078
g94
S'53'
p1079
ssg131
(lp1080
g94
asbsg133
(dp1081
g412
(dp1082
g137
g414
sg139
I01
sg140
S'464.7562'
p1083
sssg142
S'STREAM version $Revision: 5.10 $ with 53 threads'
p1084
sbag1
(g110
g3
NtRp1085
(dp1086
g113
g1
(g114
g3
NtRp1087
(dp1088
g117
(lp1089
g94
asg121
(dp1090
g94
g408
ssg126
(dp1091
g94
S'54'
p1092
ssg131
(lp1093
g94
asbsg133
(dp1094
g412
(dp1095
g137
g414
sg139
I01
sg140
S'466.7428'
p1096
sssg142
S'STREAM version $Revision: 5.10 $ with 54 threads'
p1097
sbag1
(g110
g3
NtRp1098
(dp1099
g113
g1
(g114
g3
NtRp1100
(dp1101
g117
(lp1102
g94
asg121
(dp1103
g94
g408
ssg126
(dp1104
g94
S'55'
p1105
ssg131
(lp1106
g94
asbsg133
(dp1107
g412
(dp1108
g137
g414
sg139
I01
sg140
S'472.0436'
p1109
sssg142
S'STREAM version $Revision: 5.10 $ with 55 threads'
p1110
sbag1
(g110
g3
NtRp1111
(dp1112
g113
g1
(g114
g3
NtRp1113
(dp1114
g117
(lp1115
g94
asg121
(dp1116
g94
g408
ssg126
(dp1117
g94
S'56'
p1118
ssg131
(lp1119
g94
asbsg133
(dp1120
g412
(dp1121
g137
g414
sg139
I01
sg140
S'479.706'
p1122
sssg142
S'STREAM version $Revision: 5.10 $ with 56 threads'
p1123
sbag1
(g110
g3
NtRp1124
(dp1125
g113
g1
(g114
g3
NtRp1126
(dp1127
g117
(lp1128
g94
asg121
(dp1129
g94
g408
ssg126
(dp1130
g94
S'57'
p1131
ssg131
(lp1132
g94
asbsg133
(dp1133
g412
(dp1134
g137
g414
sg139
I01
sg140
S'482.87'
p1135
sssg142
S'STREAM version $Revision: 5.10 $ with 57 threads'
p1136
sbag1
(g110
g3
NtRp1137
(dp1138
g113
g1
(g114
g3
NtRp1139
(dp1140
g117
(lp1141
g94
asg121
(dp1142
g94
g408
ssg126
(dp1143
g94
S'58'
p1144
ssg131
(lp1145
g94
asbsg133
(dp1146
g412
(dp1147
g137
g414
sg139
I01
sg140
S'486.8473'
p1148
sssg142
S'STREAM version $Revision: 5.10 $ with 58 threads'
p1149
sbag1
(g110
g3
NtRp1150
(dp1151
g113
g1
(g114
g3
NtRp1152
(dp1153
g117
(lp1154
g94
asg121
(dp1155
g94
g408
ssg126
(dp1156
g94
S'59'
p1157
ssg131
(lp1158
g94
asbsg133
(dp1159
g412
(dp1160
g137
g414
sg139
I01
sg140
S'478.388'
p1161
sssg142
S'STREAM version $Revision: 5.10 $ with 59 threads'
p1162
sbag1
(g110
g3
NtRp1163
(dp1164
g113
g1
(g114
g3
NtRp1165
(dp1166
g117
(lp1167
g94
asg121
(dp1168
g94
g408
ssg126
(dp1169
g94
S'60'
p1170
ssg131
(lp1171
g94
asbsg133
(dp1172
g412
(dp1173
g137
g414
sg139
I01
sg140
S'479.9919'
p1174
sssg142
S'STREAM version $Revision: 5.10 $ with 60 threads'
p1175
sbag1
(g110
g3
NtRp1176
(dp1177
g113
g1
(g114
g3
NtRp1178
(dp1179
g117
(lp1180
g94
asg121
(dp1181
g94
g408
ssg126
(dp1182
g94
S'61'
p1183
ssg131
(lp1184
g94
asbsg133
(dp1185
g412
(dp1186
g137
g414
sg139
I01
sg140
S'482.3999'
p1187
sssg142
S'STREAM version $Revision: 5.10 $ with 61 threads'
p1188
sbag1
(g110
g3
NtRp1189
(dp1190
g113
g1
(g114
g3
NtRp1191
(dp1192
g117
(lp1193
g94
asg121
(dp1194
g94
g408
ssg126
(dp1195
g94
S'62'
p1196
ssg131
(lp1197
g94
asbsg133
(dp1198
g412
(dp1199
g137
g414
sg139
I01
sg140
S'481.9669'
p1200
sssg142
S'STREAM version $Revision: 5.10 $ with 62 threads'
p1201
sbag1
(g110
g3
NtRp1202
(dp1203
g113
g1
(g114
g3
NtRp1204
(dp1205
g117
(lp1206
g94
asg121
(dp1207
g94
g408
ssg126
(dp1208
g94
S'63'
p1209
ssg131
(lp1210
g94
asbsg133
(dp1211
g412
(dp1212
g137
g414
sg139
I01
sg140
S'484.8323'
p1213
sssg142
S'STREAM version $Revision: 5.10 $ with 63 threads'
p1214
sbag1
(g110
g3
NtRp1215
(dp1216
g113
g1
(g114
g3
NtRp1217
(dp1218
g117
(lp1219
g94
asg121
(dp1220
g94
g408
ssg126
(dp1221
g94
S'64'
p1222
ssg131
(lp1223
g94
asbsg133
(dp1224
g412
(dp1225
g137
g414
sg139
I01
sg140
S'483.9218'
p1226
sssg142
S'STREAM version $Revision: 5.10 $ with 64 threads'
p1227
sbag1
(g110
g3
NtRp1228
(dp1229
g113
g1
(g114
g3
NtRp1230
(dp1231
g117
(lp1232
g94
asg121
(dp1233
g94
g408
ssg126
(dp1234
g94
S'65'
p1235
ssg131
(lp1236
g94
asbsg133
(dp1237
g412
(dp1238
g137
g414
sg139
I01
sg140
S'482.1111'
p1239
sssg142
S'STREAM version $Revision: 5.10 $ with 65 threads'
p1240
sbag1
(g110
g3
NtRp1241
(dp1242
g113
g1
(g114
g3
NtRp1243
(dp1244
g117
(lp1245
g94
asg121
(dp1246
g94
g408
ssg126
(dp1247
g94
S'66'
p1248
ssg131
(lp1249
g94
asbsg133
(dp1250
g412
(dp1251
g137
g414
sg139
I01
sg140
S'480.3139'
p1252
sssg142
S'STREAM version $Revision: 5.10 $ with 66 threads'
p1253
sbag1
(g110
g3
NtRp1254
(dp1255
g113
g1
(g114
g3
NtRp1256
(dp1257
g117
(lp1258
g94
asg121
(dp1259
g94
g408
ssg126
(dp1260
g94
S'67'
p1261
ssg131
(lp1262
g94
asbsg133
(dp1263
g412
(dp1264
g137
g414
sg139
I01
sg140
S'478.8146'
p1265
sssg142
S'STREAM version $Revision: 5.10 $ with 67 threads'
p1266
sbag1
(g110
g3
NtRp1267
(dp1268
g113
g1
(g114
g3
NtRp1269
(dp1270
g117
(lp1271
g94
asg121
(dp1272
g94
g408
ssg126
(dp1273
g94
S'68'
p1274
ssg131
(lp1275
g94
asbsg133
(dp1276
g412
(dp1277
g137
g414
sg139
I01
sg140
S'479.2421'
p1278
sssg142
S'STREAM version $Revision: 5.10 $ with 68 threads'
p1279
sbassg95
(dp1280
S'local__mcdram_7250_SuSE-12_micperf-1.6.0_local_scaling'
p1281
(lp1282
g1
(g110
g3
NtRp1283
(dp1284
g113
g1
(g114
g3
NtRp1285
(dp1286
g117
(lp1287
g94
aS'iters'
p1288
aS'inpWidth'
p1289
aS'inpHeight'
p1290
aS'nImg'
p1291
aS'nIfm'
p1292
aS'nOfm'
p1293
aS'kw'
p1294
aS'kh'
p1295
aS'pad'
p1296
aS'stride'
p1297
asg121
(dp1298
g1292
S'3'
sg94
S'68'
p1299
sg1295
S'7'
sg1291
S'16'
p1300
sg1297
S'2'
sg1293
S'64'
p1301
sg1288
S'100'
p1302
sg1289
S'224'
p1303
sg1290
S'224'
p1304
sg1294
S'7'
sg1296
S'3'
ssg126
(dp1305
g1292
S'3'
sg1297
S'2'
sg94
g1299
sg1295
S'7'
sg1291
S'16'
p1306
sg1288
S'100'
p1307
sg1293
S'64'
p1308
sg1294
S'7'
sg1289
S'224'
p1309
sg1290
S'224'
p1310
sg1296
S'3'
ssg131
(lp1311
g94
asbsg133
(dp1312
S'Computation.Avg.NHWC/custom-Storage.FWD'
p1313
(dp1314
g137
g138
sg139
I01
sg140
F2390.5999999999999
ssS'Computation.Avg.NHWC/custom-Storage.UPD'
p1315
(dp1316
g137
g138
sg139
I01
sg140
F995.16999999999996
ssS'Computation.Avg.custom-Storage.FWD'
p1317
(dp1318
g137
g138
sg139
I01
sg140
F2585.6999999999998
ssS'Computation.Avg.custom-Storage.UPD'
p1319
(dp1320
g137
g138
sg139
I01
sg140
F875.36000000000001
ssS'Computation.Avg.NHWC/RSCK-Storage.UPD'
p1321
(dp1322
g137
g138
sg139
I01
sg140
F995.96000000000004
ssS'Computation.Avg.NHWC/RSCK-Storage.FWD'
p1323
(dp1324
g137
g138
sg139
I01
sg140
F2362.3000000000002
sssg142
S'W=224 H=224 C=3 N=16 K=64 R=7 S=7'
p1325
sbassg96
(dp1326
S'local__mcdram_7250_SuSE-12_micperf-1.6.0_local_scaling'
p1327
(lp1328
g1
(g110
g3
NtRp1329
(dp1330
g113
g1
(g114
g3
NtRp1331
(dp1332
g117
(lp1333
S'i_num_rep'
p1334
ag97
aS'n_num_thread'
p1335
aS'm_mode'
p1336
aS'N_size'
p1337
aS'M_size'
p1338
asg121
(dp1339
g1337
S'7680'
p1340
sg1334
S'3'
sg97
S'7680'
p1341
sg1335
S'0'
sg1336
S'NN'
p1342
sg1338
S'7680'
p1343
ssg126
(dp1344
g1334
S'3'
sg97
S'512'
p1345
sg1335
S'0'
sg1336
g1342
sg1337
S'512'
p1346
sg1338
S'512'
p1347
ssg131
(lp1348
sbsg133
(dp1349
S'Task.Computation.Avg'
p1350
(dp1351
g137
g138
sg139
I01
sg140
S'985.91'
p1352
sssg142
S'(M=512, N=512, K=512) MKL DGEMM with 68 (autodetected) threads and 3 iterations'
p1353
sbag1
(g110
g3
NtRp1354
(dp1355
g113
g1
(g114
g3
NtRp1356
(dp1357
g117
(lp1358
g1334
ag97
ag1335
ag1336
ag1337
ag1338
asg121
(dp1359
g1337
g1340
sg1334
S'3'
sg97
g1341
sg1335
S'0'
sg1336
g1342
sg1338
g1343
ssg126
(dp1360
g1334
S'3'
sg97
S'1024'
p1361
sg1335
S'0'
sg1336
g1342
sg1337
S'1024'
p1362
sg1338
S'1024'
p1363
ssg131
(lp1364
sbsg133
(dp1365
g1350
(dp1366
g137
g138
sg139
I01
sg140
S'859.12'
p1367
sssg142
S'(M=1024, N=1024, K=1024) MKL DGEMM with 68 (autodetected) threads and 3 iterations'
p1368
sbag1
(g110
g3
NtRp1369
(dp1370
g113
g1
(g114
g3
NtRp1371
(dp1372
g117
(lp1373
g1334
ag97
ag1335
ag1336
ag1337
ag1338
asg121
(dp1374
g1337
g1340
sg1334
S'3'
sg97
g1341
sg1335
S'0'
sg1336
g1342
sg1338
g1343
ssg126
(dp1375
g1334
S'3'
sg97
S'1536'
p1376
sg1335
S'0'
sg1336
g1342
sg1337
S'1536'
p1377
sg1338
S'1536'
p1378
ssg131
(lp1379
sbsg133
(dp1380
g1350
(dp1381
g137
g138
sg139
I01
sg140
S'1095.34'
p1382
sssg142
S'(M=1536, N=1536, K=1536) MKL DGEMM with 68 (autodetected) threads and 3 iterations'
p1383
sbag1
(g110
g3
NtRp1384
(dp1385
g113
g1
(g114
g3
NtRp1386
(dp1387
g117
(lp1388
g1334
ag97
ag1335
ag1336
ag1337
ag1338
asg121
(dp1389
g1337
g1340
sg1334
S'3'
sg97
g1341
sg1335
S'0'
sg1336
g1342
sg1338
g1343
ssg126
(dp1390
g1334
S'3'
sg97
S'2048'
p1391
sg1335
S'0'
sg1336
g1342
sg1337
S'2048'
p1392
sg1338
S'2048'
p1393
ssg131
(lp1394
sbsg133
(dp1395
g1350
(dp1396
g137
g138
sg139
I01
sg140
S'1450.81'
p1397
sssg142
S'(M=2048, N=2048, K=2048) MKL DGEMM with 68 (autodetected) threads and 3 iterations'
p1398
sbag1
(g110
g3
NtRp1399
(dp1400
g113
g1
(g114
g3
NtRp1401
(dp1402
g117
(lp1403
g1334
ag97
ag1335
ag1336
ag1337
ag1338
asg121
(dp1404
g1337
g1340
sg1334
S'3'
sg97
g1341
sg1335
S'0'
sg1336
g1342
sg1338
g1343
ssg126
(dp1405
g1334
S'3'
sg97
S'2560'
p1406
sg1335
S'0'
sg1336
g1342
sg1337
S'2560'
p1407
sg1338
S'2560'
p1408
ssg131
(lp1409
sbsg133
(dp1410
g1350
(dp1411
g137
g138
sg139
I01
sg140
S'1677.57'
p1412
sssg142
S'(M=2560, N=2560, K=2560) MKL DGEMM with 68 (autodetected) threads and 3 iterations'
p1413
sbag1
(g110
g3
NtRp1414
(dp1415
g113
g1
(g114
g3
NtRp1416
(dp1417
g117
(lp1418
g1334
ag97
ag1335
ag1336
ag1337
ag1338
asg121
(dp1419
g1337
g1340
sg1334
S'3'
sg97
g1341
sg1335
S'0'
sg1336
g1342
sg1338
g1343
ssg126
(dp1420
g1334
S'3'
sg97
S'3072'
p1421
sg1335
S'0'
sg1336
g1342
sg1337
S'3072'
p1422
sg1338
S'3072'
p1423
ssg131
(lp1424
sbsg133
(dp1425
g1350
(dp1426
g137
g138
sg139
I01
sg140
S'1729.32'
p1427
sssg142
S'(M=3072, N=3072, K=3072) MKL DGEMM with 68 (autodetected) threads and 3 iterations'
p1428
sbag1
(g110
g3
NtRp1429
(dp1430
g113
g1
(g114
g3
NtRp1431
(dp1432
g117
(lp1433
g1334
ag97
ag1335
ag1336
ag1337
ag1338
asg121
(dp1434
g1337
g1340
sg1334
S'3'
sg97
g1341
sg1335
S'0'
sg1336
g1342
sg1338
g1343
ssg126
(dp1435
g1334
S'3'
sg97
S'3584'
p1436
sg1335
S'0'
sg1336
g1342
sg1337
S'3584'
p1437
sg1338
S'3584'
p1438
ssg131
(lp1439
sbsg133
(dp1440
g1350
(dp1441
g137
g138
sg139
I01
sg140
S'1773.33'
p1442
sssg142
S'(M=3584, N=3584, K=3584) MKL DGEMM with 68 (autodetected) threads and 3 iterations'
p1443
sbag1
(g110
g3
NtRp1444
(dp1445
g113
g1
(g114
g3
NtRp1446
(dp1447
g117
(lp1448
g1334
ag97
ag1335
ag1336
ag1337
ag1338
asg121
(dp1449
g1337
g1340
sg1334
S'3'
sg97
g1341
sg1335
S'0'
sg1336
g1342
sg1338
g1343
ssg126
(dp1450
g1334
S'3'
sg97
S'4096'
p1451
sg1335
S'0'
sg1336
g1342
sg1337
S'4096'
p1452
sg1338
S'4096'
p1453
ssg131
(lp1454
sbsg133
(dp1455
g1350
(dp1456
g137
g138
sg139
I01
sg140
S'1863.82'
p1457
sssg142
S'(M=4096, N=4096, K=4096) MKL DGEMM with 68 (autodetected) threads and 3 iterations'
p1458
sbag1
(g110
g3
NtRp1459
(dp1460
g113
g1
(g114
g3
NtRp1461
(dp1462
g117
(lp1463
g1334
ag97
ag1335
ag1336
ag1337
ag1338
asg121
(dp1464
g1337
g1340
sg1334
S'3'
sg97
g1341
sg1335
S'0'
sg1336
g1342
sg1338
g1343
ssg126
(dp1465
g1334
S'3'
sg97
S'4608'
p1466
sg1335
S'0'
sg1336
g1342
sg1337
S'4608'
p1467
sg1338
S'4608'
p1468
ssg131
(lp1469
sbsg133
(dp1470
g1350
(dp1471
g137
g138
sg139
I01
sg140
S'1980.07'
p1472
sssg142
S'(M=4608, N=4608, K=4608) MKL DGEMM with 68 (autodetected) threads and 3 iterations'
p1473
sbag1
(g110
g3
NtRp1474
(dp1475
g113
g1
(g114
g3
NtRp1476
(dp1477
g117
(lp1478
g1334
ag97
ag1335
ag1336
ag1337
ag1338
asg121
(dp1479
g1337
g1340
sg1334
S'3'
sg97
g1341
sg1335
S'0'
sg1336
g1342
sg1338
g1343
ssg126
(dp1480
g1334
S'3'
sg97
S'5120'
p1481
sg1335
S'0'
sg1336
g1342
sg1337
S'5120'
p1482
sg1338
S'5120'
p1483
ssg131
(lp1484
sbsg133
(dp1485
g1350
(dp1486
g137
g138
sg139
I01
sg140
S'2003.38'
p1487
sssg142
S'(M=5120, N=5120, K=5120) MKL DGEMM with 68 (autodetected) threads and 3 iterations'
p1488
sbag1
(g110
g3
NtRp1489
(dp1490
g113
g1
(g114
g3
NtRp1491
(dp1492
g117
(lp1493
g1334
ag97
ag1335
ag1336
ag1337
ag1338
asg121
(dp1494
g1337
g1340
sg1334
S'3'
sg97
g1341
sg1335
S'0'
sg1336
g1342
sg1338
g1343
ssg126
(dp1495
g1334
S'3'
sg97
S'5632'
p1496
sg1335
S'0'
sg1336
g1342
sg1337
S'5632'
p1497
sg1338
S'5632'
p1498
ssg131
(lp1499
sbsg133
(dp1500
g1350
(dp1501
g137
g138
sg139
I01
sg140
S'2015.38'
p1502
sssg142
S'(M=5632, N=5632, K=5632) MKL DGEMM with 68 (autodetected) threads and 3 iterations'
p1503
sbag1
(g110
g3
NtRp1504
(dp1505
g113
g1
(g114
g3
NtRp1506
(dp1507
g117
(lp1508
g1334
ag97
ag1335
ag1336
ag1337
ag1338
asg121
(dp1509
g1337
g1340
sg1334
S'3'
sg97
g1341
sg1335
S'0'
sg1336
g1342
sg1338
g1343
ssg126
(dp1510
g1334
S'3'
sg97
S'6144'
p1511
sg1335
S'0'
sg1336
g1342
sg1337
S'6144'
p1512
sg1338
S'6144'
p1513
ssg131
(lp1514
sbsg133
(dp1515
g1350
(dp1516
g137
g138
sg139
I01
sg140
S'2037.02'
p1517
sssg142
S'(M=6144, N=6144, K=6144) MKL DGEMM with 68 (autodetected) threads and 3 iterations'
p1518
sbag1
(g110
g3
NtRp1519
(dp1520
g113
g1
(g114
g3
NtRp1521
(dp1522
g117
(lp1523
g1334
ag97
ag1335
ag1336
ag1337
ag1338
asg121
(dp1524
g1337
g1340
sg1334
S'3'
sg97
g1341
sg1335
S'0'
sg1336
g1342
sg1338
g1343
ssg126
(dp1525
g1334
S'3'
sg97
S'6656'
p1526
sg1335
S'0'
sg1336
g1342
sg1337
S'6656'
p1527
sg1338
S'6656'
p1528
ssg131
(lp1529
sbsg133
(dp1530
g1350
(dp1531
g137
g138
sg139
I01
sg140
S'2041.21'
p1532
sssg142
S'(M=6656, N=6656, K=6656) MKL DGEMM with 68 (autodetected) threads and 3 iterations'
p1533
sbag1
(g110
g3
NtRp1534
(dp1535
g113
g1
(g114
g3
NtRp1536
(dp1537
g117
(lp1538
g1334
ag97
ag1335
ag1336
ag1337
ag1338
asg121
(dp1539
g1337
g1340
sg1334
S'3'
sg97
g1341
sg1335
S'0'
sg1336
g1342
sg1338
g1343
ssg126
(dp1540
g1334
S'3'
sg97
S'7168'
p1541
sg1335
S'0'
sg1336
g1342
sg1337
S'7168'
p1542
sg1338
S'7168'
p1543
ssg131
(lp1544
sbsg133
(dp1545
g1350
(dp1546
g137
g138
sg139
I01
sg140
S'2084.61'
p1547
sssg142
S'(M=7168, N=7168, K=7168) MKL DGEMM with 68 (autodetected) threads and 3 iterations'
p1548
sbag1
(g110
g3
NtRp1549
(dp1550
g113
g1
(g114
g3
NtRp1551
(dp1552
g117
(lp1553
g1334
ag97
ag1335
ag1336
ag1337
ag1338
asg121
(dp1554
g1337
g1340
sg1334
S'3'
sg97
g1341
sg1335
S'0'
sg1336
g1342
sg1338
g1343
ssg126
(dp1555
g1334
S'3'
sg97
S'7680'
p1556
sg1335
S'0'
sg1336
g1342
sg1337
S'7680'
p1557
sg1338
S'7680'
p1558
ssg131
(lp1559
sbsg133
(dp1560
g1350
(dp1561
g137
g138
sg139
I01
sg140
S'1974.54'
p1562
sssg142
S'(M=7680, N=7680, K=7680) MKL DGEMM with 68 (autodetected) threads and 3 iterations'
p1563
sbag1
(g110
g3
NtRp1564
(dp1565
g113
g1
(g114
g3
NtRp1566
(dp1567
g117
(lp1568
g1334
ag97
ag1335
ag1336
ag1337
ag1338
asg121
(dp1569
g1337
g1340
sg1334
S'3'
sg97
g1341
sg1335
S'0'
sg1336
g1342
sg1338
g1343
ssg126
(dp1570
g1334
S'3'
sg97
S'8192'
p1571
sg1335
S'0'
sg1336
g1342
sg1337
S'8192'
p1572
sg1338
S'8192'
p1573
ssg131
(lp1574
sbsg133
(dp1575
g1350
(dp1576
g137
g138
sg139
I01
sg140
S'2005.94'
p1577
sssg142
S'(M=8192, N=8192, K=8192) MKL DGEMM with 68 (autodetected) threads and 3 iterations'
p1578
sbag1
(g110
g3
NtRp1579
(dp1580
g113
g1
(g114
g3
NtRp1581
(dp1582
g117
(lp1583
g1334
ag97
ag1335
ag1336
ag1337
ag1338
asg121
(dp1584
g1337
g1340
sg1334
S'3'
sg97
g1341
sg1335
S'0'
sg1336
g1342
sg1338
g1343
ssg126
(dp1585
g1334
S'3'
sg97
S'8704'
p1586
sg1335
S'0'
sg1336
g1342
sg1337
S'8704'
p1587
sg1338
S'8704'
p1588
ssg131
(lp1589
sbsg133
(dp1590
g1350
(dp1591
g137
g138
sg139
I01
sg140
S'2043.09'
p1592
sssg142
S'(M=8704, N=8704, K=8704) MKL DGEMM with 68 (autodetected) threads and 3 iterations'
p1593
sbag1
(g110
g3
NtRp1594
(dp1595
g113
g1
(g114
g3
NtRp1596
(dp1597
g117
(lp1598
g1334
ag97
ag1335
ag1336
ag1337
ag1338
asg121
(dp1599
g1337
g1340
sg1334
S'3'
sg97
g1341
sg1335
S'0'
sg1336
g1342
sg1338
g1343
ssg126
(dp1600
g1334
S'3'
sg97
S'9216'
p1601
sg1335
S'0'
sg1336
g1342
sg1337
S'9216'
p1602
sg1338
S'9216'
p1603
ssg131
(lp1604
sbsg133
(dp1605
g1350
(dp1606
g137
g138
sg139
I01
sg140
S'2037.03'
p1607
sssg142
S'(M=9216, N=9216, K=9216) MKL DGEMM with 68 (autodetected) threads and 3 iterations'
p1608
sbag1
(g110
g3
NtRp1609
(dp1610
g113
g1
(g114
g3
NtRp1611
(dp1612
g117
(lp1613
g1334
ag97
ag1335
ag1336
ag1337
ag1338
asg121
(dp1614
g1337
g1340
sg1334
S'3'
sg97
g1341
sg1335
S'0'
sg1336
g1342
sg1338
g1343
ssg126
(dp1615
g1334
S'3'
sg97
S'9728'
p1616
sg1335
S'0'
sg1336
g1342
sg1337
S'9728'
p1617
sg1338
S'9728'
p1618
ssg131
(lp1619
sbsg133
(dp1620
g1350
(dp1621
g137
g138
sg139
I01
sg140
S'1979.59'
p1622
sssg142
S'(M=9728, N=9728, K=9728) MKL DGEMM with 68 (autodetected) threads and 3 iterations'
p1623
sbag1
(g110
g3
NtRp1624
(dp1625
g113
g1
(g114
g3
NtRp1626
(dp1627
g117
(lp1628
g1334
ag97
ag1335
ag1336
ag1337
ag1338
asg121
(dp1629
g1337
g1340
sg1334
S'3'
sg97
g1341
sg1335
S'0'
sg1336
g1342
sg1338
g1343
ssg126
(dp1630
g1334
S'3'
sg97
S'10240'
p1631
sg1335
S'0'
sg1336
g1342
sg1337
S'10240'
p1632
sg1338
S'10240'
p1633
ssg131
(lp1634
sbsg133
(dp1635
g1350
(dp1636
g137
g138
sg139
I01
sg140
S'2009.49'
p1637
sssg142
S'(M=10240, N=10240, K=10240) MKL DGEMM with 68 (autodetected) threads and 3 iterations'
p1638
sbassg98
(dp1639
S'local__mcdram_7250_SuSE-12_micperf-1.6.0_local_scaling'
p1640
(lp1641
g1
(g110
g3
NtRp1642
(dp1643
g113
g1
(g114
g3
NtRp1644
(dp1645
g117
(lp1646
g99
aS'time'
p1647
ag94
asg121
(dp1648
g94
S'32'
p1649
sg1647
S'60'
p1650
sg99
S'128'
p1651
ssg126
(dp1652
g94
S'32'
p1653
sg1647
S'60'
p1654
sg99
S'32'
p1655
ssg131
(lp1656
sbsg133
(dp1657
S'Computation.Avg'
p1658
(dp1659
g137
g138
sg139
I01
sg140
S'14.8183'
p1660
sssg142
S'hpcg Local Dimensions nx=32, ny=32, nz=32, MPI ranks 4, threads per rank 32'
p1661
sbag1
(g110
g3
NtRp1662
(dp1663
g113
g1
(g114
g3
NtRp1664
(dp1665
g117
(lp1666
g99
ag1647
ag94
asg121
(dp1667
g94
g1649
sg1647
g1650
sg99
g1651
ssg126
(dp1668
g94
S'32'
p1669
sg1647
S'60'
p1670
sg99
S'64'
p1671
ssg131
(lp1672
sbsg133
(dp1673
g1658
(dp1674
g137
g138
sg139
I01
sg140
S'42.3021'
p1675
sssg142
S'hpcg Local Dimensions nx=64, ny=64, nz=64, MPI ranks 4, threads per rank 32'
p1676
sbag1
(g110
g3
NtRp1677
(dp1678
g113
g1
(g114
g3
NtRp1679
(dp1680
g117
(lp1681
g99
ag1647
ag94
asg121
(dp1682
g94
g1649
sg1647
g1650
sg99
g1651
ssg126
(dp1683
g94
S'32'
p1684
sg1647
S'60'
p1685
sg99
S'96'
p1686
ssg131
(lp1687
sbsg133
(dp1688
g1658
(dp1689
g137
g138
sg139
I01
sg140
S'55.3978'
p1690
sssg142
S'hpcg Local Dimensions nx=96, ny=96, nz=96, MPI ranks 4, threads per rank 32'
p1691
sbag1
(g110
g3
NtRp1692
(dp1693
g113
g1
(g114
g3
NtRp1694
(dp1695
g117
(lp1696
g99
ag1647
ag94
asg121
(dp1697
g94
g1649
sg1647
g1650
sg99
g1651
ssg126
(dp1698
g94
S'32'
p1699
sg1647
S'60'
p1700
sg99
S'128'
p1701
ssg131
(lp1702
sbsg133
(dp1703
g1658
(dp1704
g137
g138
sg139
I01
sg140
S'60.8341'
p1705
sssg142
S'hpcg Local Dimensions nx=128, ny=128, nz=128, MPI ranks 4, threads per rank 32'
p1706
sbassg100
(dp1707
S'local__mcdram_7250_SuSE-12_micperf-1.6.0_local_scaling'
p1708
(lp1709
g1
(g110
g3
NtRp1710
(dp1711
g113
g1
(g114
g3
NtRp1712
(dp1713
g117
(lp1714
g99
aS'block_size'
p1715
aS'hpl_numthreads'
p1716
asg121
(dp1717
g1716
S'68'
p1718
sg1715
S'336'
p1719
sg99
S'100000'
p1720
ssg126
(dp1721
g1716
S'68'
p1722
sg1715
S'336'
p1723
sg99
S'10000'
p1724
ssg131
(lp1725
g1716
asbsg133
(dp1726
S'Computation.Avg'
p1727
(dp1728
g137
g138
sg139
I01
sg140
F798.93899999999996
sssg142
S'HPLinpack problem size 10000 block size 336'
p1729
sbag1
(g110
g3
NtRp1730
(dp1731
g113
g1
(g114
g3
NtRp1732
(dp1733
g117
(lp1734
g99
ag1715
ag1716
asg121
(dp1735
g1716
g1718
sg1715
g1719
sg99
g1720
ssg126
(dp1736
g1716
S'68'
p1737
sg1715
S'336'
p1738
sg99
S'20000'
p1739
ssg131
(lp1740
g1716
asbsg133
(dp1741
g1727
(dp1742
g137
g138
sg139
I01
sg140
F1548.3800000000001
sssg142
S'HPLinpack problem size 20000 block size 336'
p1743
sbag1
(g110
g3
NtRp1744
(dp1745
g113
g1
(g114
g3
NtRp1746
(dp1747
g117
(lp1748
g99
ag1715
ag1716
asg121
(dp1749
g1716
g1718
sg1715
g1719
sg99
g1720
ssg126
(dp1750
g1716
S'68'
p1751
sg1715
S'336'
p1752
sg99
S'30000'
p1753
ssg131
(lp1754
g1716
asbsg133
(dp1755
g1727
(dp1756
g137
g138
sg139
I01
sg140
F1691.3399999999999
sssg142
S'HPLinpack problem size 30000 block size 336'
p1757
sbag1
(g110
g3
NtRp1758
(dp1759
g113
g1
(g114
g3
NtRp1760
(dp1761
g117
(lp1762
g99
ag1715
ag1716
asg121
(dp1763
g1716
g1718
sg1715
g1719
sg99
g1720
ssg126
(dp1764
g1716
S'68'
p1765
sg1715
S'336'
p1766
sg99
S'40000'
p1767
ssg131
(lp1768
g1716
asbsg133
(dp1769
g1727
(dp1770
g137
g138
sg139
I01
sg140
F1757.4400000000001
sssg142
S'HPLinpack problem size 40000 block size 336'
p1771
sbag1
(g110
g3
NtRp1772
(dp1773
g113
g1
(g114
g3
NtRp1774
(dp1775
g117
(lp1776
g99
ag1715
ag1716
asg121
(dp1777
g1716
g1718
sg1715
g1719
sg99
g1720
ssg126
(dp1778
g1716
S'68'
p1779
sg1715
S'336'
p1780
sg99
S'50000'
p1781
ssg131
(lp1782
g1716
asbsg133
(dp1783
g1727
(dp1784
g137
g138
sg139
I01
sg140
F1770.53
sssg142
S'HPLinpack problem size 50000 block size 336'
p1785
sbag1
(g110
g3
NtRp1786
(dp1787
g113
g1
(g114
g3
NtRp1788
(dp1789
g117
(lp1790
g99
ag1715
ag1716
asg121
(dp1791
g1716
g1718
sg1715
g1719
sg99
g1720
ssg126
(dp1792
g1716
S'68'
p1793
sg1715
S'336'
p1794
sg99
S'60000'
p1795
ssg131
(lp1796
g1716
asbsg133
(dp1797
g1727
(dp1798
g137
g138
sg139
I01
sg140
F1785.53
sssg142
S'HPLinpack problem size 60000 block size 336'
p1799
sbag1
(g110
g3
NtRp1800
(dp1801
g113
g1
(g114
g3
NtRp1802
(dp1803
g117
(lp1804
g99
ag1715
ag1716
asg121
(dp1805
g1716
g1718
sg1715
g1719
sg99
g1720
ssg126
(dp1806
g1716
S'68'
p1807
sg1715
S'336'
p1808
sg99
S'70000'
p1809
ssg131
(lp1810
g1716
asbsg133
(dp1811
g1727
(dp1812
g137
g138
sg139
I01
sg140
F1795.1600000000001
sssg142
S'HPLinpack problem size 70000 block size 336'
p1813
sbag1
(g110
g3
NtRp1814
(dp1815
g113
g1
(g114
g3
NtRp1816
(dp1817
g117
(lp1818
g99
ag1715
ag1716
asg121
(dp1819
g1716
g1718
sg1715
g1719
sg99
g1720
ssg126
(dp1820
g1716
S'68'
p1821
sg1715
S'336'
p1822
sg99
S'80000'
p1823
ssg131
(lp1824
g1716
asbsg133
(dp1825
g1727
(dp1826
g137
g138
sg139
I01
sg140
F1802.6300000000001
sssg142
S'HPLinpack problem size 80000 block size 336'
p1827
sbag1
(g110
g3
NtRp1828
(dp1829
g113
g1
(g114
g3
NtRp1830
(dp1831
g117
(lp1832
g99
ag1715
ag1716
asg121
(dp1833
g1716
g1718
sg1715
g1719
sg99
g1720
ssg126
(dp1834
g1716
S'68'
p1835
sg1715
S'336'
p1836
sg99
S'90000'
p1837
ssg131
(lp1838
g1716
asbsg133
(dp1839
g1727
(dp1840
g137
g138
sg139
I01
sg140
F1810.28
sssg142
S'HPLinpack problem size 90000 block size 336'
p1841
sbag1
(g110
g3
NtRp1842
(dp1843
g113
g1
(g114
g3
NtRp1844
(dp1845
g117
(lp1846
g99
ag1715
ag1716
asg121
(dp1847
g1716
g1718
sg1715
g1719
sg99
g1720
ssg126
(dp1848
g1716
S'68'
p1849
sg1715
S'336'
p1850
sg99
S'100000'
p1851
ssg131
(lp1852
g1716
asbsg133
(dp1853
g1727
(dp1854
g137
g138
sg139
I01
sg140
F1793.1800000000001
sssg142
S'HPLinpack problem size 100000 block size 336'
p1855
sbassg101
(dp1856
S'local__mcdram_7250_SuSE-12_micperf-1.6.0_local_scaling'
p1857
(lp1858
g1
(g110
g3
NtRp1859
(dp1860
g113
g1
(g114
g3
NtRp1861
(dp1862
g117
(lp1863
g1334
ag97
ag1335
ag1336
ag1337
ag1338
asg121
(dp1864
g1337
S'-1'
p1865
sg1334
S'3'
sg97
g1865
sg1335
S'228'
p1866
sg1336
g1342
sg1338
g1865
ssg126
(dp1867
g1334
S'3'
sg97
S'512'
p1868
sg1335
S'0'
sg1336
g1342
sg1337
S'512'
p1869
sg1338
S'512'
p1870
ssg131
(lp1871
sbsg133
(dp1872
g1350
(dp1873
g137
g138
sg139
I01
sg140
S'2339.38'
p1874
sssg142
S'(M=512, N=512, K=512) MKL SGEMM with 68 (autodetected) threads and 3 iterations'
p1875
sbag1
(g110
g3
NtRp1876
(dp1877
g113
g1
(g114
g3
NtRp1878
(dp1879
g117
(lp1880
g1334
ag97
ag1335
ag1336
ag1337
ag1338
asg121
(dp1881
g1337
g1865
sg1334
S'3'
sg97
g1865
sg1335
g1866
sg1336
g1342
sg1338
g1865
ssg126
(dp1882
g1334
S'3'
sg97
S'1024'
p1883
sg1335
S'0'
sg1336
g1342
sg1337
S'1024'
p1884
sg1338
S'1024'
p1885
ssg131
(lp1886
sbsg133
(dp1887
g1350
(dp1888
g137
g138
sg139
I01
sg140
S'1747.84'
p1889
sssg142
S'(M=1024, N=1024, K=1024) MKL SGEMM with 68 (autodetected) threads and 3 iterations'
p1890
sbag1
(g110
g3
NtRp1891
(dp1892
g113
g1
(g114
g3
NtRp1893
(dp1894
g117
(lp1895
g1334
ag97
ag1335
ag1336
ag1337
ag1338
asg121
(dp1896
g1337
g1865
sg1334
S'3'
sg97
g1865
sg1335
g1866
sg1336
g1342
sg1338
g1865
ssg126
(dp1897
g1334
S'3'
sg97
S'1536'
p1898
sg1335
S'0'
sg1336
g1342
sg1337
S'1536'
p1899
sg1338
S'1536'
p1900
ssg131
(lp1901
sbsg133
(dp1902
g1350
(dp1903
g137
g138
sg139
I01
sg140
S'2318.03'
p1904
sssg142
S'(M=1536, N=1536, K=1536) MKL SGEMM with 68 (autodetected) threads and 3 iterations'
p1905
sbag1
(g110
g3
NtRp1906
(dp1907
g113
g1
(g114
g3
NtRp1908
(dp1909
g117
(lp1910
g1334
ag97
ag1335
ag1336
ag1337
ag1338
asg121
(dp1911
g1337
g1865
sg1334
S'3'
sg97
g1865
sg1335
g1866
sg1336
g1342
sg1338
g1865
ssg126
(dp1912
g1334
S'3'
sg97
S'2048'
p1913
sg1335
S'0'
sg1336
g1342
sg1337
S'2048'
p1914
sg1338
S'2048'
p1915
ssg131
(lp1916
sbsg133
(dp1917
g1350
(dp1918
g137
g138
sg139
I01
sg140
S'2575.7'
p1919
sssg142
S'(M=2048, N=2048, K=2048) MKL SGEMM with 68 (autodetected) threads and 3 iterations'
p1920
sbag1
(g110
g3
NtRp1921
(dp1922
g113
g1
(g114
g3
NtRp1923
(dp1924
g117
(lp1925
g1334
ag97
ag1335
ag1336
ag1337
ag1338
asg121
(dp1926
g1337
g1865
sg1334
S'3'
sg97
g1865
sg1335
g1866
sg1336
g1342
sg1338
g1865
ssg126
(dp1927
g1334
S'3'
sg97
S'2560'
p1928
sg1335
S'0'
sg1336
g1342
sg1337
S'2560'
p1929
sg1338
S'2560'
p1930
ssg131
(lp1931
sbsg133
(dp1932
g1350
(dp1933
g137
g138
sg139
I01
sg140
S'3047.87'
p1934
sssg142
S'(M=2560, N=2560, K=2560) MKL SGEMM with 68 (autodetected) threads and 3 iterations'
p1935
sbag1
(g110
g3
NtRp1936
(dp1937
g113
g1
(g114
g3
NtRp1938
(dp1939
g117
(lp1940
g1334
ag97
ag1335
ag1336
ag1337
ag1338
asg121
(dp1941
g1337
g1865
sg1334
S'3'
sg97
g1865
sg1335
g1866
sg1336
g1342
sg1338
g1865
ssg126
(dp1942
g1334
S'3'
sg97
S'3072'
p1943
sg1335
S'0'
sg1336
g1342
sg1337
S'3072'
p1944
sg1338
S'3072'
p1945
ssg131
(lp1946
sbsg133
(dp1947
g1350
(dp1948
g137
g138
sg139
I01
sg140
S'3272.79'
p1949
sssg142
S'(M=3072, N=3072, K=3072) MKL SGEMM with 68 (autodetected) threads and 3 iterations'
p1950
sbag1
(g110
g3
NtRp1951
(dp1952
g113
g1
(g114
g3
NtRp1953
(dp1954
g117
(lp1955
g1334
ag97
ag1335
ag1336
ag1337
ag1338
asg121
(dp1956
g1337
g1865
sg1334
S'3'
sg97
g1865
sg1335
g1866
sg1336
g1342
sg1338
g1865
ssg126
(dp1957
g1334
S'3'
sg97
S'3584'
p1958
sg1335
S'0'
sg1336
g1342
sg1337
S'3584'
p1959
sg1338
S'3584'
p1960
ssg131
(lp1961
sbsg133
(dp1962
g1350
(dp1963
g137
g138
sg139
I01
sg140
S'3416.44'
p1964
sssg142
S'(M=3584, N=3584, K=3584) MKL SGEMM with 68 (autodetected) threads and 3 iterations'
p1965
sbag1
(g110
g3
NtRp1966
(dp1967
g113
g1
(g114
g3
NtRp1968
(dp1969
g117
(lp1970
g1334
ag97
ag1335
ag1336
ag1337
ag1338
asg121
(dp1971
g1337
g1865
sg1334
S'3'
sg97
g1865
sg1335
g1866
sg1336
g1342
sg1338
g1865
ssg126
(dp1972
g1334
S'3'
sg97
S'4096'
p1973
sg1335
S'0'
sg1336
g1342
sg1337
S'4096'
p1974
sg1338
S'4096'
p1975
ssg131
(lp1976
sbsg133
(dp1977
g1350
(dp1978
g137
g138
sg139
I01
sg140
S'3777.52'
p1979
sssg142
S'(M=4096, N=4096, K=4096) MKL SGEMM with 68 (autodetected) threads and 3 iterations'
p1980
sbag1
(g110
g3
NtRp1981
(dp1982
g113
g1
(g114
g3
NtRp1983
(dp1984
g117
(lp1985
g1334
ag97
ag1335
ag1336
ag1337
ag1338
asg121
(dp1986
g1337
g1865
sg1334
S'3'
sg97
g1865
sg1335
g1866
sg1336
g1342
sg1338
g1865
ssg126
(dp1987
g1334
S'3'
sg97
S'4608'
p1988
sg1335
S'0'
sg1336
g1342
sg1337
S'4608'
p1989
sg1338
S'4608'
p1990
ssg131
(lp1991
sbsg133
(dp1992
g1350
(dp1993
g137
g138
sg139
I01
sg140
S'3978.88'
p1994
sssg142
S'(M=4608, N=4608, K=4608) MKL SGEMM with 68 (autodetected) threads and 3 iterations'
p1995
sbag1
(g110
g3
NtRp1996
(dp1997
g113
g1
(g114
g3
NtRp1998
(dp1999
g117
(lp2000
g1334
ag97
ag1335
ag1336
ag1337
ag1338
asg121
(dp2001
g1337
g1865
sg1334
S'3'
sg97
g1865
sg1335
g1866
sg1336
g1342
sg1338
g1865
ssg126
(dp2002
g1334
S'3'
sg97
S'5120'
p2003
sg1335
S'0'
sg1336
g1342
sg1337
S'5120'
p2004
sg1338
S'5120'
p2005
ssg131
(lp2006
sbsg133
(dp2007
g1350
(dp2008
g137
g138
sg139
I01
sg140
S'4023.11'
p2009
sssg142
S'(M=5120, N=5120, K=5120) MKL SGEMM with 68 (autodetected) threads and 3 iterations'
p2010
sbag1
(g110
g3
NtRp2011
(dp2012
g113
g1
(g114
g3
NtRp2013
(dp2014
g117
(lp2015
g1334
ag97
ag1335
ag1336
ag1337
ag1338
asg121
(dp2016
g1337
g1865
sg1334
S'3'
sg97
g1865
sg1335
g1866
sg1336
g1342
sg1338
g1865
ssg126
(dp2017
g1334
S'3'
sg97
S'5632'
p2018
sg1335
S'0'
sg1336
g1342
sg1337
S'5632'
p2019
sg1338
S'5632'
p2020
ssg131
(lp2021
sbsg133
(dp2022
g1350
(dp2023
g137
g138
sg139
I01
sg140
S'4078.7'
p2024
sssg142
S'(M=5632, N=5632, K=5632) MKL SGEMM with 68 (autodetected) threads and 3 iterations'
p2025
sbag1
(g110
g3
NtRp2026
(dp2027
g113
g1
(g114
g3
NtRp2028
(dp2029
g117
(lp2030
g1334
ag97
ag1335
ag1336
ag1337
ag1338
asg121
(dp2031
g1337
g1865
sg1334
S'3'
sg97
g1865
sg1335
g1866
sg1336
g1342
sg1338
g1865
ssg126
(dp2032
g1334
S'3'
sg97
S'6144'
p2033
sg1335
S'0'
sg1336
g1342
sg1337
S'6144'
p2034
sg1338
S'6144'
p2035
ssg131
(lp2036
sbsg133
(dp2037
g1350
(dp2038
g137
g138
sg139
I01
sg140
S'4109.66'
p2039
sssg142
S'(M=6144, N=6144, K=6144) MKL SGEMM with 68 (autodetected) threads and 3 iterations'
p2040
sbag1
(g110
g3
NtRp2041
(dp2042
g113
g1
(g114
g3
NtRp2043
(dp2044
g117
(lp2045
g1334
ag97
ag1335
ag1336
ag1337
ag1338
asg121
(dp2046
g1337
g1865
sg1334
S'3'
sg97
g1865
sg1335
g1866
sg1336
g1342
sg1338
g1865
ssg126
(dp2047
g1334
S'3'
sg97
S'6656'
p2048
sg1335
S'0'
sg1336
g1342
sg1337
S'6656'
p2049
sg1338
S'6656'
p2050
ssg131
(lp2051
sbsg133
(dp2052
g1350
(dp2053
g137
g138
sg139
I01
sg140
S'4089.66'
p2054
sssg142
S'(M=6656, N=6656, K=6656) MKL SGEMM with 68 (autodetected) threads and 3 iterations'
p2055
sbag1
(g110
g3
NtRp2056
(dp2057
g113
g1
(g114
g3
NtRp2058
(dp2059
g117
(lp2060
g1334
ag97
ag1335
ag1336
ag1337
ag1338
asg121
(dp2061
g1337
g1865
sg1334
S'3'
sg97
g1865
sg1335
g1866
sg1336
g1342
sg1338
g1865
ssg126
(dp2062
g1334
S'3'
sg97
S'7168'
p2063
sg1335
S'0'
sg1336
g1342
sg1337
S'7168'
p2064
sg1338
S'7168'
p2065
ssg131
(lp2066
sbsg133
(dp2067
g1350
(dp2068
g137
g138
sg139
I01
sg140
S'4113.49'
p2069
sssg142
S'(M=7168, N=7168, K=7168) MKL SGEMM with 68 (autodetected) threads and 3 iterations'
p2070
sbag1
(g110
g3
NtRp2071
(dp2072
g113
g1
(g114
g3
NtRp2073
(dp2074
g117
(lp2075
g1334
ag97
ag1335
ag1336
ag1337
ag1338
asg121
(dp2076
g1337
g1865
sg1334
S'3'
sg97
g1865
sg1335
g1866
sg1336
g1342
sg1338
g1865
ssg126
(dp2077
g1334
S'3'
sg97
S'7680'
p2078
sg1335
S'0'
sg1336
g1342
sg1337
S'7680'
p2079
sg1338
S'7680'
p2080
ssg131
(lp2081
sbsg133
(dp2082
g1350
(dp2083
g137
g138
sg139
I01
sg140
S'4099.36'
p2084
sssg142
S'(M=7680, N=7680, K=7680) MKL SGEMM with 68 (autodetected) threads and 3 iterations'
p2085
sbag1
(g110
g3
NtRp2086
(dp2087
g113
g1
(g114
g3
NtRp2088
(dp2089
g117
(lp2090
g1334
ag97
ag1335
ag1336
ag1337
ag1338
asg121
(dp2091
g1337
g1865
sg1334
S'3'
sg97
g1865
sg1335
g1866
sg1336
g1342
sg1338
g1865
ssg126
(dp2092
g1334
S'3'
sg97
S'8192'
p2093
sg1335
S'0'
sg1336
g1342
sg1337
S'8192'
p2094
sg1338
S'8192'
p2095
ssg131
(lp2096
sbsg133
(dp2097
g1350
(dp2098
g137
g138
sg139
I01
sg140
S'4227.55'
p2099
sssg142
S'(M=8192, N=8192, K=8192) MKL SGEMM with 68 (autodetected) threads and 3 iterations'
p2100
sbag1
(g110
g3
NtRp2101
(dp2102
g113
g1
(g114
g3
NtRp2103
(dp2104
g117
(lp2105
g1334
ag97
ag1335
ag1336
ag1337
ag1338
asg121
(dp2106
g1337
g1865
sg1334
S'3'
sg97
g1865
sg1335
g1866
sg1336
g1342
sg1338
g1865
ssg126
(dp2107
g1334
S'3'
sg97
S'8704'
p2108
sg1335
S'0'
sg1336
g1342
sg1337
S'8704'
p2109
sg1338
S'8704'
p2110
ssg131
(lp2111
sbsg133
(dp2112
g1350
(dp2113
g137
g138
sg139
I01
sg140
S'4312.66'
p2114
sssg142
S'(M=8704, N=8704, K=8704) MKL SGEMM with 68 (autodetected) threads and 3 iterations'
p2115
sbag1
(g110
g3
NtRp2116
(dp2117
g113
g1
(g114
g3
NtRp2118
(dp2119
g117
(lp2120
g1334
ag97
ag1335
ag1336
ag1337
ag1338
asg121
(dp2121
g1337
g1865
sg1334
S'3'
sg97
g1865
sg1335
g1866
sg1336
g1342
sg1338
g1865
ssg126
(dp2122
g1334
S'3'
sg97
S'9216'
p2123
sg1335
S'0'
sg1336
g1342
sg1337
S'9216'
p2124
sg1338
S'9216'
p2125
ssg131
(lp2126
sbsg133
(dp2127
g1350
(dp2128
g137
g138
sg139
I01
sg140
S'4317.36'
p2129
sssg142
S'(M=9216, N=9216, K=9216) MKL SGEMM with 68 (autodetected) threads and 3 iterations'
p2130
sbag1
(g110
g3
NtRp2131
(dp2132
g113
g1
(g114
g3
NtRp2133
(dp2134
g117
(lp2135
g1334
ag97
ag1335
ag1336
ag1337
ag1338
asg121
(dp2136
g1337
g1865
sg1334
S'3'
sg97
g1865
sg1335
g1866
sg1336
g1342
sg1338
g1865
ssg126
(dp2137
g1334
S'3'
sg97
S'9728'
p2138
sg1335
S'0'
sg1336
g1342
sg1337
S'9728'
p2139
sg1338
S'9728'
p2140
ssg131
(lp2141
sbsg133
(dp2142
g1350
(dp2143
g137
g138
sg139
I01
sg140
S'4289.77'
p2144
sssg142
S'(M=9728, N=9728, K=9728) MKL SGEMM with 68 (autodetected) threads and 3 iterations'
p2145
sbag1
(g110
g3
NtRp2146
(dp2147
g113
g1
(g114
g3
NtRp2148
(dp2149
g117
(lp2150
g1334
ag97
ag1335
ag1336
ag1337
ag1338
asg121
(dp2151
g1337
g1865
sg1334
S'3'
sg97
g1865
sg1335
g1866
sg1336
g1342
sg1338
g1865
ssg126
(dp2152
g1334
S'3'
sg97
S'10240'
p2153
sg1335
S'0'
sg1336
g1342
sg1337
S'10240'
p2154
sg1338
S'10240'
p2155
ssg131
(lp2156
sbsg133
(dp2157
g1350
(dp2158
g137
g138
sg139
I01
sg140
S'4286.55'
p2159
sssg142
S'(M=10240, N=10240, K=10240) MKL SGEMM with 68 (autodetected) threads and 3 iterations'
p2160
sbag1
(g110
g3
NtRp2161
(dp2162
g113
g1
(g114
g3
NtRp2163
(dp2164
g117
(lp2165
g1334
ag97
ag1335
ag1336
ag1337
ag1338
asg121
(dp2166
g1337
g1865
sg1334
S'3'
sg97
g1865
sg1335
g1866
sg1336
g1342
sg1338
g1865
ssg126
(dp2167
g1334
S'3'
sg97
S'10752'
p2168
sg1335
S'0'
sg1336
g1342
sg1337
S'10752'
p2169
sg1338
S'10752'
p2170
ssg131
(lp2171
sbsg133
(dp2172
g1350
(dp2173
g137
g138
sg139
I01
sg140
S'4311.89'
p2174
sssg142
S'(M=10752, N=10752, K=10752) MKL SGEMM with 68 (autodetected) threads and 3 iterations'
p2175
sbag1
(g110
g3
NtRp2176
(dp2177
g113
g1
(g114
g3
NtRp2178
(dp2179
g117
(lp2180
g1334
ag97
ag1335
ag1336
ag1337
ag1338
asg121
(dp2181
g1337
g1865
sg1334
S'3'
sg97
g1865
sg1335
g1866
sg1336
g1342
sg1338
g1865
ssg126
(dp2182
g1334
S'3'
sg97
S'11264'
p2183
sg1335
S'0'
sg1336
g1342
sg1337
S'11264'
p2184
sg1338
S'11264'
p2185
ssg131
(lp2186
sbsg133
(dp2187
g1350
(dp2188
g137
g138
sg139
I01
sg140
S'4274.1'
p2189
sssg142
S'(M=11264, N=11264, K=11264) MKL SGEMM with 68 (autodetected) threads and 3 iterations'
p2190
sbag1
(g110
g3
NtRp2191
(dp2192
g113
g1
(g114
g3
NtRp2193
(dp2194
g117
(lp2195
g1334
ag97
ag1335
ag1336
ag1337
ag1338
asg121
(dp2196
g1337
g1865
sg1334
S'3'
sg97
g1865
sg1335
g1866
sg1336
g1342
sg1338
g1865
ssg126
(dp2197
g1334
S'3'
sg97
S'11776'
p2198
sg1335
S'0'
sg1336
g1342
sg1337
S'11776'
p2199
sg1338
S'11776'
p2200
ssg131
(lp2201
sbsg133
(dp2202
g1350
(dp2203
g137
g138
sg139
I01
sg140
S'4275.17'
p2204
sssg142
S'(M=11776, N=11776, K=11776) MKL SGEMM with 68 (autodetected) threads and 3 iterations'
p2205
sbag1
(g110
g3
NtRp2206
(dp2207
g113
g1
(g114
g3
NtRp2208
(dp2209
g117
(lp2210
g1334
ag97
ag1335
ag1336
ag1337
ag1338
asg121
(dp2211
g1337
g1865
sg1334
S'3'
sg97
g1865
sg1335
g1866
sg1336
g1342
sg1338
g1865
ssg126
(dp2212
g1334
S'3'
sg97
S'12288'
p2213
sg1335
S'0'
sg1336
g1342
sg1337
S'12288'
p2214
sg1338
S'12288'
p2215
ssg131
(lp2216
sbsg133
(dp2217
g1350
(dp2218
g137
g138
sg139
I01
sg140
S'4308.35'
p2219
sssg142
S'(M=12288, N=12288, K=12288) MKL SGEMM with 68 (autodetected) threads and 3 iterations'
p2220
sbag1
(g110
g3
NtRp2221
(dp2222
g113
g1
(g114
g3
NtRp2223
(dp2224
g117
(lp2225
g1334
ag97
ag1335
ag1336
ag1337
ag1338
asg121
(dp2226
g1337
g1865
sg1334
S'3'
sg97
g1865
sg1335
g1866
sg1336
g1342
sg1338
g1865
ssg126
(dp2227
g1334
S'3'
sg97
S'12800'
p2228
sg1335
S'0'
sg1336
g1342
sg1337
S'12800'
p2229
sg1338
S'12800'
p2230
ssg131
(lp2231
sbsg133
(dp2232
g1350
(dp2233
g137
g138
sg139
I01
sg140
S'4305.58'
p2234
sssg142
S'(M=12800, N=12800, K=12800) MKL SGEMM with 68 (autodetected) threads and 3 iterations'
p2235
sbag1
(g110
g3
NtRp2236
(dp2237
g113
g1
(g114
g3
NtRp2238
(dp2239
g117
(lp2240
g1334
ag97
ag1335
ag1336
ag1337
ag1338
asg121
(dp2241
g1337
g1865
sg1334
S'3'
sg97
g1865
sg1335
g1866
sg1336
g1342
sg1338
g1865
ssg126
(dp2242
g1334
S'3'
sg97
S'13312'
p2243
sg1335
S'0'
sg1336
g1342
sg1337
S'13312'
p2244
sg1338
S'13312'
p2245
ssg131
(lp2246
sbsg133
(dp2247
g1350
(dp2248
g137
g138
sg139
I01
sg140
S'4307.98'
p2249
sssg142
S'(M=13312, N=13312, K=13312) MKL SGEMM with 68 (autodetected) threads and 3 iterations'
p2250
sbag1
(g110
g3
NtRp2251
(dp2252
g113
g1
(g114
g3
NtRp2253
(dp2254
g117
(lp2255
g1334
ag97
ag1335
ag1336
ag1337
ag1338
asg121
(dp2256
g1337
g1865
sg1334
S'3'
sg97
g1865
sg1335
g1866
sg1336
g1342
sg1338
g1865
ssg126
(dp2257
g1334
S'3'
sg97
S'13824'
p2258
sg1335
S'0'
sg1336
g1342
sg1337
S'13824'
p2259
sg1338
S'13824'
p2260
ssg131
(lp2261
sbsg133
(dp2262
g1350
(dp2263
g137
g138
sg139
I01
sg140
S'4274.54'
p2264
sssg142
S'(M=13824, N=13824, K=13824) MKL SGEMM with 68 (autodetected) threads and 3 iterations'
p2265
sbag1
(g110
g3
NtRp2266
(dp2267
g113
g1
(g114
g3
NtRp2268
(dp2269
g117
(lp2270
g1334
ag97
ag1335
ag1336
ag1337
ag1338
asg121
(dp2271
g1337
g1865
sg1334
S'3'
sg97
g1865
sg1335
g1866
sg1336
g1342
sg1338
g1865
ssg126
(dp2272
g1334
S'3'
sg97
S'14336'
p2273
sg1335
S'0'
sg1336
g1342
sg1337
S'14336'
p2274
sg1338
S'14336'
p2275
ssg131
(lp2276
sbsg133
(dp2277
g1350
(dp2278
g137
g138
sg139
I01
sg140
S'4334.78'
p2279
sssg142
S'(M=14336, N=14336, K=14336) MKL SGEMM with 68 (autodetected) threads and 3 iterations'
p2280
sbag1
(g110
g3
NtRp2281
(dp2282
g113
g1
(g114
g3
NtRp2283
(dp2284
g117
(lp2285
g1334
ag97
ag1335
ag1336
ag1337
ag1338
asg121
(dp2286
g1337
g1865
sg1334
S'3'
sg97
g1865
sg1335
g1866
sg1336
g1342
sg1338
g1865
ssg126
(dp2287
g1334
S'3'
sg97
S'14848'
p2288
sg1335
S'0'
sg1336
g1342
sg1337
S'14848'
p2289
sg1338
S'14848'
p2290
ssg131
(lp2291
sbsg133
(dp2292
g1350
(dp2293
g137
g138
sg139
I01
sg140
S'4315.47'
p2294
sssg142
S'(M=14848, N=14848, K=14848) MKL SGEMM with 68 (autodetected) threads and 3 iterations'
p2295
sbag1
(g110
g3
NtRp2296
(dp2297
g113
g1
(g114
g3
NtRp2298
(dp2299
g117
(lp2300
g1334
ag97
ag1335
ag1336
ag1337
ag1338
asg121
(dp2301
g1337
g1865
sg1334
S'3'
sg97
g1865
sg1335
g1866
sg1336
g1342
sg1338
g1865
ssg126
(dp2302
g1334
S'3'
sg97
S'15360'
p2303
sg1335
S'0'
sg1336
g1342
sg1337
S'15360'
p2304
sg1338
S'15360'
p2305
ssg131
(lp2306
sbsg133
(dp2307
g1350
(dp2308
g137
g138
sg139
I01
sg140
S'4256.67'
p2309
sssg142
S'(M=15360, N=15360, K=15360) MKL SGEMM with 68 (autodetected) threads and 3 iterations'
p2310
sbag1
(g110
g3
NtRp2311
(dp2312
g113
g1
(g114
g3
NtRp2313
(dp2314
g117
(lp2315
g1334
ag97
ag1335
ag1336
ag1337
ag1338
asg121
(dp2316
g1337
g1865
sg1334
S'3'
sg97
g1865
sg1335
g1866
sg1336
g1342
sg1338
g1865
ssg126
(dp2317
g1334
S'3'
sg97
S'15872'
p2318
sg1335
S'0'
sg1336
g1342
sg1337
S'15872'
p2319
sg1338
S'15872'
p2320
ssg131
(lp2321
sbsg133
(dp2322
g1350
(dp2323
g137
g138
sg139
I01
sg140
S'4295.69'
p2324
sssg142
S'(M=15872, N=15872, K=15872) MKL SGEMM with 68 (autodetected) threads and 3 iterations'
p2325
sbag1
(g110
g3
NtRp2326
(dp2327
g113
g1
(g114
g3
NtRp2328
(dp2329
g117
(lp2330
g1334
ag97
ag1335
ag1336
ag1337
ag1338
asg121
(dp2331
g1337
g1865
sg1334
S'3'
sg97
g1865
sg1335
g1866
sg1336
g1342
sg1338
g1865
ssg126
(dp2332
g1334
S'3'
sg97
S'16384'
p2333
sg1335
S'0'
sg1336
g1342
sg1337
S'16384'
p2334
sg1338
S'16384'
p2335
ssg131
(lp2336
sbsg133
(dp2337
g1350
(dp2338
g137
g138
sg139
I01
sg140
S'4253.31'
p2339
sssg142
S'(M=16384, N=16384, K=16384) MKL SGEMM with 68 (autodetected) threads and 3 iterations'
p2340
sbassg102
(dp2341
S'local__mcdram_7250_SuSE-12_micperf-1.6.0_local_scaling'
p2342
(lp2343
g1
(g110
g3
NtRp2344
(dp2345
g113
g1
(g114
g3
NtRp2346
(dp2347
g117
(lp2348
g103
aS'numjobs'
p2349
asg121
(dp2350
g103
S'16MB'
p2351
sg2349
S'10'
p2352
ssg126
(dp2353
g2349
S'10'
p2354
sg103
S'4MB'
p2355
ssg131
(lp2356
sbsg133
(dp2357
S'Computation.Avg'
p2358
(dp2359
g137
S'kB/s'
p2360
sg139
I01
sg140
I27471
sssg142
Vfio-2.1.13; Test of paralell read from multiple files; total size: 40960 kB
p2361
sbag1
(g110
g3
NtRp2362
(dp2363
g113
g1
(g114
g3
NtRp2364
(dp2365
g117
(lp2366
g103
ag2349
asg121
(dp2367
g103
g2351
sg2349
g2352
ssg126
(dp2368
g2349
S'10'
p2369
sg103
S'8MB'
p2370
ssg131
(lp2371
sbsg133
(dp2372
g2358
(dp2373
g137
g2360
sg139
I01
sg140
I2637
sssg142
Vfio-2.1.13; Test of paralell read from multiple files; total size: 81920 kB
p2374
sbag1
(g110
g3
NtRp2375
(dp2376
g113
g1
(g114
g3
NtRp2377
(dp2378
g117
(lp2379
g103
ag2349
asg121
(dp2380
g103
g2351
sg2349
g2352
ssg126
(dp2381
g2349
S'10'
p2382
sg103
S'16MB'
p2383
ssg131
(lp2384
sbsg133
(dp2385
g2358
(dp2386
g137
g2360
sg139
I01
sg140
I2007
sssg142
Vfio-2.1.13; Test of paralell read from multiple files; total size: 163840 kB
p2387
sbag1
(g110
g3
NtRp2388
(dp2389
g113
g1
(g114
g3
NtRp2390
(dp2391
g117
(lp2392
g103
ag2349
asg121
(dp2393
g103
g2351
sg2349
g2352
ssg126
(dp2394
g2349
S'10'
p2395
sg103
S'32MB'
p2396
ssg131
(lp2397
sbsg133
(dp2398
g2358
(dp2399
g137
g2360
sg139
I01
sg140
I1688
sssg142
Vfio-2.1.13; Test of paralell read from multiple files; total size: 327680 kB
p2400
sbag1
(g110
g3
NtRp2401
(dp2402
g113
g1
(g114
g3
NtRp2403
(dp2404
g117
(lp2405
g103
ag2349
asg121
(dp2406
g103
g2351
sg2349
g2352
ssg126
(dp2407
g2349
S'10'
p2408
sg103
S'64MB'
p2409
ssg131
(lp2410
sbsg133
(dp2411
g2358
(dp2412
g137
g2360
sg139
I01
sg140
I1577
sssg142
Vfio-2.1.13; Test of paralell read from multiple files; total size: 655360 kB
p2413
sbassg104
(dp2414
S'local__mcdram_7250_SuSE-12_micperf-1.6.0_local_scaling'
p2415
(lp2416
g1
(g110
g3
NtRp2417
(dp2418
g113
g1
(g114
g3
NtRp2419
(dp2420
g117
(lp2421
g94
aS'with_padding'
p2422
aS'output'
p2423
aS'groups'
p2424
ag1291
ag1289
ag1290
ag1292
ag1293
ag1294
ag1295
ag1297
ag1296
ag1288
asg121
(dp2425
g1292
S'3'
sg1288
S'100'
p2426
sg1295
S'7'
sg94
S'68'
p2427
sg2422
S'0'
sg1291
S'16'
p2428
sg1297
S'2'
sg1293
S'64'
p2429
sg1294
S'7'
sg1289
S'224'
p2430
sg2424
S'1'
sg1290
S'224'
p2431
sg2423
S'--original-output'
p2432
sg1296
S'3'
ssg126
(dp2433
g1292
S'3'
sg1288
S'100'
p2434
sg94
g2427
sg1295
S'7'
sg2422
S'0'
sg1291
S'16'
p2435
sg1297
S'2'
sg1293
S'64'
p2436
sg1294
S'7'
sg1289
S'224'
p2437
sg2424
S'1'
sg1290
S'224'
p2438
sg2423
g2432
sg1296
S'3'
ssg131
(lp2439
g94
asbsg133
(dp2440
S'Computation.Avg.FWD'
p2441
(dp2442
g137
g138
sg139
I01
sg140
S'2848.89'
p2443
ssS'Computation.Avg.BWD_F'
p2444
(dp2445
g137
g138
sg139
I01
sg140
S'2667.39'
p2446
ssS'Computation.Avg.BWD_D'
p2447
(dp2448
g137
g138
sg139
I01
sg140
S'228.28'
p2449
sssg142
S'W=224, H=224, C=3, N=16, K=64, R=7, S=7'
p2450
sbasssS'tag'
p2451
S'mcdram_7250_SuSE-12_micperf-1.6.0_local_scaling'
p2452
sS'_extended'
p2453
I00
sS'runArgs'
p2454
(dp2455
S'compResult'
p2456
S''
sS'verbLevel'
p2457
S'1'
sS'paramCat'
p2458
S'scaling'
p2459
sS'sudo'
p2460
I00
sS'logFileName'
p2461
NsS'kernelPlugin'
p2462
S''
sg2451
S''
sS'devIdx'
p2463
S'-1'
p2464
sS'kernelNames'
p2465
S'all'
p2466
sS'statistical_model'
p2467
(dp2468
sS'offMethod'
p2469
S'local'
p2470
sS'margin'
p2471
S''
sS'kernelArgs'
p2472
S''
sS'outDir'
p2473
S'.'
ssb.