ccopy_reg
_reconstructor
p1
(cmicp.stats
StatsCollection
p2
c__builtin__
object
p3
NtRp4
(dp5
S'info'
p6
g1
(cmicp.info
Info
p7
g3
NtRp8
(dp9
S'_device'
p10
g1
(cmicp.info
InfoKNXSB
p11
g3
NtRp12
(dp13
S'_micinfoDict'
p14
(dp15
S'selfboot'
p16
(dp17
S'MCDRAM Size'
p18
S'16384 MB'
p19
sS'CPU Model Name'
p20
S'Intel(R) Xeon Phi(TM) CPU 7290 @ 1.50GHz'
p21
sS'CPU Family'
p22
S'6'
sS'OS Version'
p23
S'3.10.0-514.10.2.el7.x86_64\n'
p24
sS'CPU Stepping'
p25
S'1'
sS'Total No of Active Cores'
p26
S'72'
p27
sS'micperf Version'
p28
S'1.6.0'
p29
sS'CPU Model'
p30
S'87'
p31
sS'CPU Speed'
p32
S'1710.234'
p33
sS'Host OS'
p34
S'gnu/linux\n'
p35
sS'Vendor ID'
p36
S'GenuineIntel'
p37
sS'Host Physical Memory'
p38
S'112580 MB'
p39
sssS'_devIP'
p40
(dp41
sS'_devIdx'
p42
I-1
sS'_nodes_with_cpus'
p43
I1
sS'_is_mcdram_available'
p44
I01
sS'_commandDict'
p45
(dp46
S'dmidecode -t processor'
p47
S'# dmidecode 3.0\nScanning /dev/mem for entry point.\n\n/dev/mem: Permission denied\n'
p48
sS'uname --processor'
p49
S'x86_64\n\n'
p50
sS'dmidecode -t baseboard'
p51
S'# dmidecode 3.0\nScanning /dev/mem for entry point.\n\n/dev/mem: Permission denied\n'
p52
sS'env'
p53
S'BERTA_BUILD_COMMENT=XPPSL-CI-1.6.0.3662\nBERTA_OS=Linux-knl-rhel73-201707111508\nSHELL=/bin/bash\nBERTA_TMP_DIR=/home/berta/berta/tmp\nUSER=berta\nBERTA_MACHINE_NAME=Linpack01\nPATH=/opt/mpss_toolchains/composer/composer_xe_2018.0/compilers_and_libraries_2018.0.128/linux/bin/intel64:/opt/mpss_toolchains/composer/composer_xe_2018.0/compilers_and_libraries_2018.0.128/linux/mpi/intel64/bin:/usr/local/sbin:/usr/local/bin:/usr/sbin:/usr/bin:/usr/share/mpss/test/micperf-pt:/usr/share/mpss/test/micperf-pt:/usr/share/mpss/test/micperf-pt\n_=/usr/bin/env\nPWD=/home/berta/berta/var/tasks/1439612\nLANG=en_US.UTF-8\nSHLVL=4\nHOME=/home/berta\nBERTA_VAR_DIR=/home/berta/berta/var\nBERTA_MACHINES_GROUP_NAME=Perf-KNL-D-MIC-72-Cores-7290\nLOGNAME=berta\nPYTHONPATH=/home/berta/berta\nMY_IP_TO_BERTA=10.54.135.91\nDISPLAY=:1\nBERTA_PRODUCT=mic_tool\nBERTA_BOOTFILE=agent\nMKLROOT=/opt/mpss_toolchains/composer/composer_xe_2018.0/compilers_and_libraries_2018.0.128/linux/mkl\nMANPATH=/opt/mpss_toolchains/composer/composer_xe_2018.0/man/common:/opt/mpss_toolchains/composer/composer_xe_2018.0/compilers_and_libraries_2018.0.128/linux/mpi/man:/opt/mpss_toolchains/composer/composer_xe_2018.0/documentation_2018/en/debugger//gdb-ia/man/:/opt/mpss_toolchains/composer/composer_xe_2018.0/documentation_2018/en/debugger//gdb-igfx/man/:/usr/local/share/man:/usr/share/man:\nINTEL_LICENSE_FILE=/opt/mpss_toolchains/composer/composer_xe_2018.0/compilers_and_libraries_2018.0.128/linux/licenses:/opt/intel/licenses:/home/berta/intel/licenses\nIPPROOT=/opt/mpss_toolchains/composer/composer_xe_2018.0/compilers_and_libraries_2018.0.128/linux/ipp\nGDBSERVER_MIC=/opt/mpss_toolchains/composer/composer_xe_2018.0/debugger_2018/gdb/targets/intel64/x200/bin/gdbserver\nLIBRARY_PATH=/opt/mpss_toolchains/composer/composer_xe_2018.0/compilers_and_libraries_2018.0.128/linux/ipp/lib/intel64:/opt/mpss_toolchains/composer/composer_xe_2018.0/compilers_and_libraries_2018.0.128/linux/compiler/lib/intel64_lin:/opt/mpss_toolchains/composer/composer_xe_2018.0/compilers_and_libraries_2018.0.128/linux/mkl/lib/intel64_lin:/opt/mpss_toolchains/composer/composer_xe_2018.0/compilers_and_libraries_2018.0.128/linux/tbb/lib/intel64/gcc4.7:/opt/mpss_toolchains/composer/composer_xe_2018.0/compilers_and_libraries_2018.0.128/linux/tbb/lib/intel64/gcc4.7:/opt/mpss_toolchains/composer/composer_xe_2018.0/compilers_and_libraries_2018.0.128/linux/daal/lib/intel64_lin:/opt/mpss_toolchains/composer/composer_xe_2018.0/compilers_and_libraries_2018.0.128/linux/daal/../tbb/lib/intel64_lin/gcc4.4\nLD_LIBRARY_PATH=/opt/mpss_toolchains/composer/composer_xe_2018.0/compilers_and_libraries_2018.0.128/linux/compiler/lib/intel64:/opt/mpss_toolchains/composer/composer_xe_2018.0/compilers_and_libraries_2018.0.128/linux/compiler/lib/intel64_lin:/opt/mpss_toolchains/composer/composer_xe_2018.0/compilers_and_libraries_2018.0.128/linux/mpi/intel64/lib:/opt/mpss_toolchains/composer/composer_xe_2018.0/compilers_and_libraries_2018.0.128/linux/mpi/mic/lib:/opt/mpss_toolchains/composer/composer_xe_2018.0/compilers_and_libraries_2018.0.128/linux/ipp/lib/intel64:/opt/mpss_toolchains/composer/composer_xe_2018.0/compilers_and_libraries_2018.0.128/linux/compiler/lib/intel64_lin:/opt/mpss_toolchains/composer/composer_xe_2018.0/compilers_and_libraries_2018.0.128/linux/mkl/lib/intel64_lin:/opt/mpss_toolchains/composer/composer_xe_2018.0/compilers_and_libraries_2018.0.128/linux/tbb/lib/intel64/gcc4.7:/opt/mpss_toolchains/composer/composer_xe_2018.0/compilers_and_libraries_2018.0.128/linux/tbb/lib/intel64/gcc4.7:/opt/mpss_toolchains/composer/composer_xe_2018.0/debugger_2018/iga/lib:/opt/mpss_toolchains/composer/composer_xe_2018.0/debugger_2018/libipt/intel64/lib:/opt/mpss_toolchains/composer/composer_xe_2018.0/compilers_and_libraries_2018.0.128/linux/daal/lib/intel64_lin:/opt/mpss_toolchains/composer/composer_xe_2018.0/compilers_and_libraries_2018.0.128/linux/daal/../tbb/lib/intel64_lin/gcc4.4\nPSTLROOT=/opt/mpss_toolchains/composer/composer_xe_2018.0/compilers_and_libraries_2018.0.128/linux/pstl\nCPATH=/opt/mpss_toolchains/composer/composer_xe_2018.0/compilers_and_libraries_2018.0.128/linux/ipp/include:/opt/mpss_toolchains/composer/composer_xe_2018.0/compilers_and_libraries_2018.0.128/linux/mkl/include:/opt/mpss_toolchains/composer/composer_xe_2018.0/compilers_and_libraries_2018.0.128/linux/pstl/include:/opt/mpss_toolchains/composer/composer_xe_2018.0/compilers_and_libraries_2018.0.128/linux/tbb/include:/opt/mpss_toolchains/composer/composer_xe_2018.0/compilers_and_libraries_2018.0.128/linux/tbb/include:/opt/mpss_toolchains/composer/composer_xe_2018.0/compilers_and_libraries_2018.0.128/linux/daal/include\nNLSPATH=/opt/mpss_toolchains/composer/composer_xe_2018.0/compilers_and_libraries_2018.0.128/linux/compiler/lib/intel64/locale/%l_%t/%N:/opt/mpss_toolchains/composer/composer_xe_2018.0/compilers_and_libraries_2018.0.128/linux/mkl/lib/intel64_lin/locale/%l_%t/%N:/opt/mpss_toolchains/composer/composer_xe_2018.0/debugger_2018/gdb/intel64/share/locale/%l_%t/%N\nTBBROOT=/opt/mpss_toolchains/composer/composer_xe_2018.0/compilers_and_libraries_2018.0.128/linux/tbb\nGDB_CROSS=/opt/mpss_toolchains/composer/composer_xe_2018.0/debugger_2018/gdb/intel64/bin/gdb-ia\nDAALROOT=/opt/mpss_toolchains/composer/composer_xe_2018.0/compilers_and_libraries_2018.0.128/linux/daal\nMPM_LAUNCHER=/opt/mpss_toolchains/composer/composer_xe_2018.0/debugger_2018/mpm/mic/bin/start_mpm.sh\nINTEL_PYTHONHOME=/opt/mpss_toolchains/composer/composer_xe_2018.0/debugger_2018/python/intel64/\nCLASSPATH=/opt/mpss_toolchains/composer/composer_xe_2018.0/compilers_and_libraries_2018.0.128/linux/mpi/intel64/lib/mpi.jar:/opt/mpss_toolchains/composer/composer_xe_2018.0/compilers_and_libraries_2018.0.128/linux/daal/lib/daal.jar\nINFOPATH=/opt/mpss_toolchains/composer/composer_xe_2018.0/documentation_2018/en/debugger//gdb-ia/info/:/opt/mpss_toolchains/composer/composer_xe_2018.0/documentation_2018/en/debugger//gdb-igfx/info/\nI_MPI_ROOT=/opt/mpss_toolchains/composer/composer_xe_2018.0/compilers_and_libraries_2018.0.128/linux/mpi\n\n'
p54
sS'uname --machine'
p55
S'x86_64\n\n'
p56
sS'uname --kernel-version'
p57
S'#1 SMP Mon Feb 20 02:37:52 EST 2017\n\n'
p58
sS'uname --kernel-release'
p59
S'3.10.0-514.10.2.el7.x86_64\n\n'
p60
sS'dmidecode -t chassis'
p61
S'# dmidecode 3.0\nScanning /dev/mem for entry point.\n\n/dev/mem: Permission denied\n'
p62
sS'uname --kernel-name'
p63
S'Linux\n\n'
p64
sS'dmidecode -t bios'
p65
S'# dmidecode 3.0\nScanning /dev/mem for entry point.\n\n/dev/mem: Permission denied\n'
p66
sS'lspci -mmvvkD'
p67
S'Slot:\t0000:00:00.0\nClass:\tHost bridge\nVendor:\tIntel Corporation\nDevice:\tDevice 780e\nSVendor:\tIntel Corporation\nSDevice:\tDevice 35cb\nRev:\t10\nNUMANode:\t0\n\nSlot:\t0000:00:05.0\nClass:\tSystem peripheral\nVendor:\tIntel Corporation\nDevice:\tDevice 7810\nSVendor:\tIntel Corporation\nSDevice:\tDevice 35cb\nRev:\t10\nNUMANode:\t0\n\nSlot:\t0000:00:05.2\nClass:\tSystem peripheral\nVendor:\tIntel Corporation\nDevice:\tDevice 7812\nSVendor:\tIntel Corporation\nSDevice:\tDevice 35cb\nRev:\t10\nNUMANode:\t0\n\nSlot:\t0000:00:05.4\nClass:\tPIC\nVendor:\tIntel Corporation\nDevice:\tDevice 7813\nSVendor:\tIntel Corporation\nSDevice:\tDevice 35cb\nRev:\t10\nProgIf:\t20\nNUMANode:\t0\n\nSlot:\t0000:00:05.6\nClass:\tPerformance counters\nVendor:\tIntel Corporation\nDevice:\tDevice 7814\nSVendor:\tIntel Corporation\nSDevice:\tDevice 35cb\nRev:\t10\nDriver:\tknl_uncore\nNUMANode:\t0\n\nSlot:\t0000:00:08.0\nClass:\tSystem peripheral\nVendor:\tIntel Corporation\nDevice:\tDevice 781a\nSVendor:\tIntel Corporation\nSDevice:\tDevice 35cb\nRev:\t10\nNUMANode:\t0\n\nSlot:\t0000:00:08.1\nClass:\tPerformance counters\nVendor:\tIntel Corporation\nDevice:\tDevice 781b\nSVendor:\tIntel Corporation\nSDevice:\tDevice 35cb\nRev:\t10\nNUMANode:\t0\n\nSlot:\t0000:00:08.2\nClass:\tSystem peripheral\nVendor:\tIntel Corporation\nDevice:\tDevice 781c\nSVendor:\tIntel Corporation\nSDevice:\tDevice 35cb\nRev:\t10\nNUMANode:\t0\n\nSlot:\t0000:00:11.0\nClass:\tUnassigned class [ff00]\nVendor:\tIntel Corporation\nDevice:\tC610/X99 series chipset SPSR\nSVendor:\tIntel Corporation\nSDevice:\tDevice 0000\nRev:\t05\nNUMANode:\t0\n\nSlot:\t0000:00:11.4\nClass:\tSATA controller\nVendor:\tIntel Corporation\nDevice:\tC610/X99 series chipset sSATA Controller [AHCI mode]\nSVendor:\tIntel Corporation\nSDevice:\tDevice 35cb\nRev:\t05\nProgIf:\t01\nDriver:\tahci\nModule:\tahci\nNUMANode:\t0\n\nSlot:\t0000:00:14.0\nClass:\tUSB controller\nVendor:\tIntel Corporation\nDevice:\tC610/X99 series chipset USB xHCI Host Controller\nSVendor:\tIntel Corporation\nSDevice:\tDevice 35cb\nRev:\t05\nProgIf:\t30\nDriver:\txhci_hcd\nNUMANode:\t0\n\nSlot:\t0000:00:16.0\nClass:\tCommunication controller\nVendor:\tIntel Corporation\nDevice:\tC610/X99 series chipset MEI Controller #1\nSVendor:\tIntel Corporation\nSDevice:\tDevice 35cb\nRev:\t05\nModule:\tmei_me\nNUMANode:\t0\n\nSlot:\t0000:00:16.1\nClass:\tCommunication controller\nVendor:\tIntel Corporation\nDevice:\tC610/X99 series chipset MEI Controller #2\nSVendor:\tIntel Corporation\nSDevice:\tDevice 35cb\nRev:\t05\nNUMANode:\t0\n\nSlot:\t0000:00:1a.0\nClass:\tUSB controller\nVendor:\tIntel Corporation\nDevice:\tC610/X99 series chipset USB Enhanced Host Controller #2\nSVendor:\tIntel Corporation\nSDevice:\tDevice 35cb\nRev:\t05\nProgIf:\t20\nDriver:\tehci-pci\nNUMANode:\t0\n\nSlot:\t0000:00:1c.0\nClass:\tPCI bridge\nVendor:\tIntel Corporation\nDevice:\tC610/X99 series chipset PCI Express Root Port #1\nRev:\td5\nDriver:\tpcieport\nModule:\tshpchp\nNUMANode:\t0\n\nSlot:\t0000:00:1c.4\nClass:\tPCI bridge\nVendor:\tIntel Corporation\nDevice:\tC610/X99 series chipset PCI Express Root Port #5\nRev:\td5\nDriver:\tpcieport\nModule:\tshpchp\nNUMANode:\t0\n\nSlot:\t0000:00:1c.6\nClass:\tPCI bridge\nVendor:\tIntel Corporation\nDevice:\tC610/X99 series chipset PCI Express Root Port #7\nRev:\td5\nDriver:\tpcieport\nModule:\tshpchp\nNUMANode:\t0\n\nSlot:\t0000:00:1c.7\nClass:\tPCI bridge\nVendor:\tIntel Corporation\nDevice:\tC610/X99 series chipset PCI Express Root Port #8\nRev:\td5\nDriver:\tpcieport\nModule:\tshpchp\nNUMANode:\t0\n\nSlot:\t0000:00:1d.0\nClass:\tUSB controller\nVendor:\tIntel Corporation\nDevice:\tC610/X99 series chipset USB Enhanced Host Controller #1\nSVendor:\tIntel Corporation\nSDevice:\tDevice 35cb\nRev:\t05\nProgIf:\t20\nDriver:\tehci-pci\nNUMANode:\t0\n\nSlot:\t0000:00:1f.0\nClass:\tISA bridge\nVendor:\tIntel Corporation\nDevice:\tC610/X99 series chipset LPC Controller\nSVendor:\tIntel Corporation\nSDevice:\tDevice 35cb\nRev:\t05\nDriver:\tlpc_ich\nModule:\tlpc_ich\nNUMANode:\t0\n\nSlot:\t0000:00:1f.2\nClass:\tSATA controller\nVendor:\tIntel Corporation\nDevice:\tC610/X99 series chipset 6-Port SATA Controller [AHCI mode]\nSVendor:\tIntel Corporation\nSDevice:\tDevice 35cb\nRev:\t05\nProgIf:\t01\nDriver:\tahci\nModule:\tahci\nNUMANode:\t0\n\nSlot:\t0000:00:1f.3\nClass:\tSMBus\nVendor:\tIntel Corporation\nDevice:\tC610/X99 series chipset SMBus Controller\nSVendor:\tIntel Corporation\nSDevice:\tDevice 35cb\nRev:\t05\nDriver:\ti801_smbus\nModule:\ti2c_i801\nNUMANode:\t0\n\nSlot:\t0000:00:1f.6\nClass:\tSignal processing controller\nVendor:\tIntel Corporation\nDevice:\tC610/X99 series chipset Thermal Subsystem\nSVendor:\tIntel Corporation\nSDevice:\tDevice 35cb\nRev:\t05\nNUMANode:\t0\n\nSlot:\t0000:02:00.0\nClass:\tVGA compatible controller\nVendor:\tMatrox Electronics Systems Ltd.\nDevice:\tMGA G200e [Pilot] ServerEngines (SEP1)\nSVendor:\tIntel Corporation\nSDevice:\tDevice 0103\nRev:\t05\nDriver:\tmgag200\nModule:\tmgag200\nNUMANode:\t0\n\nSlot:\t0000:03:00.0\nClass:\tEthernet controller\nVendor:\tIntel Corporation\nDevice:\tI210 Gigabit Network Connection\nSVendor:\tIntel Corporation\nSDevice:\tDevice 35cb\nRev:\t03\nDriver:\tigb\nModule:\tigb\nNUMANode:\t0\n\nSlot:\t0000:04:00.0\nClass:\tEthernet controller\nVendor:\tIntel Corporation\nDevice:\tI210 Gigabit Network Connection\nSVendor:\tIntel Corporation\nSDevice:\tDevice 35cb\nRev:\t03\nDriver:\tigb\nModule:\tigb\nNUMANode:\t0\n\nSlot:\t0000:fe:08.0\nClass:\tSystem peripheral\nVendor:\tIntel Corporation\nDevice:\tDevice 782f\nSVendor:\tIntel Corporation\nSDevice:\tDevice 782f\nRev:\t10\n\nSlot:\t0000:fe:08.1\nClass:\tSystem peripheral\nVendor:\tIntel Corporation\nDevice:\tDevice 782f\nSVendor:\tIntel Corporation\nSDevice:\tDevice 782f\nRev:\t10\n\nSlot:\t0000:fe:08.2\nClass:\tSystem peripheral\nVendor:\tIntel Corporation\nDevice:\tDevice 782f\nSVendor:\tIntel Corporation\nSDevice:\tDevice 782f\nRev:\t10\n\nSlot:\t0000:fe:08.3\nClass:\tSystem peripheral\nVendor:\tIntel Corporation\nDevice:\tDevice 782f\nSVendor:\tIntel Corporation\nSDevice:\tDevice 782f\nRev:\t10\n\nSlot:\t0000:fe:08.4\nClass:\tSystem peripheral\nVendor:\tIntel Corporation\nDevice:\tDevice 782f\nSVendor:\tIntel Corporation\nSDevice:\tDevice 782f\nRev:\t10\n\nSlot:\t0000:fe:08.5\nClass:\tSystem peripheral\nVendor:\tIntel Corporation\nDevice:\tDevice 782f\nSVendor:\tIntel Corporation\nSDevice:\tDevice 782f\nRev:\t10\n\nSlot:\t0000:fe:08.6\nClass:\tSystem peripheral\nVendor:\tIntel Corporation\nDevice:\tDevice 782f\nSVendor:\tIntel Corporation\nSDevice:\tDevice 782f\nRev:\t10\n\nSlot:\t0000:fe:08.7\nClass:\tSystem peripheral\nVendor:\tIntel Corporation\nDevice:\tDevice 782f\nSVendor:\tIntel Corporation\nSDevice:\tDevice 782f\nRev:\t10\n\nSlot:\t0000:fe:09.0\nClass:\tSystem peripheral\nVendor:\tIntel Corporation\nDevice:\tDevice 782f\nSVendor:\tIntel Corporation\nSDevice:\tDevice 782f\nRev:\t10\n\nSlot:\t0000:fe:09.1\nClass:\tSystem peripheral\nVendor:\tIntel Corporation\nDevice:\tDevice 782f\nSVendor:\tIntel Corporation\nSDevice:\tDevice 782f\nRev:\t10\n\nSlot:\t0000:fe:09.2\nClass:\tSystem peripheral\nVendor:\tIntel Corporation\nDevice:\tDevice 782f\nSVendor:\tIntel Corporation\nSDevice:\tDevice 782f\nRev:\t10\n\nSlot:\t0000:fe:09.3\nClass:\tSystem peripheral\nVendor:\tIntel Corporation\nDevice:\tDevice 782f\nSVendor:\tIntel Corporation\nSDevice:\tDevice 782f\nRev:\t10\n\nSlot:\t0000:fe:09.4\nClass:\tSystem peripheral\nVendor:\tIntel Corporation\nDevice:\tDevice 782f\nSVendor:\tIntel Corporation\nSDevice:\tDevice 782f\nRev:\t10\n\nSlot:\t0000:fe:09.5\nClass:\tSystem peripheral\nVendor:\tIntel Corporation\nDevice:\tDevice 782f\nSVendor:\tIntel Corporation\nSDevice:\tDevice 782f\nRev:\t10\n\nSlot:\t0000:fe:09.6\nClass:\tSystem peripheral\nVendor:\tIntel Corporation\nDevice:\tDevice 782f\nSVendor:\tIntel Corporation\nSDevice:\tDevice 782f\nRev:\t10\n\nSlot:\t0000:fe:09.7\nClass:\tSystem peripheral\nVendor:\tIntel Corporation\nDevice:\tDevice 782f\nSVendor:\tIntel Corporation\nSDevice:\tDevice 782f\nRev:\t10\n\nSlot:\t0000:fe:0a.0\nClass:\tSystem peripheral\nVendor:\tIntel Corporation\nDevice:\tDevice 782f\nSVendor:\tIntel Corporation\nSDevice:\tDevice 782f\nRev:\t10\n\nSlot:\t0000:fe:0a.1\nClass:\tSystem peripheral\nVendor:\tIntel Corporation\nDevice:\tDevice 782f\nSVendor:\tIntel Corporation\nSDevice:\tDevice 782f\nRev:\t10\n\nSlot:\t0000:fe:0a.2\nClass:\tSystem peripheral\nVendor:\tIntel Corporation\nDevice:\tDevice 782f\nSVendor:\tIntel Corporation\nSDevice:\tDevice 782f\nRev:\t10\n\nSlot:\t0000:fe:0a.3\nClass:\tSystem peripheral\nVendor:\tIntel Corporation\nDevice:\tDevice 782f\nSVendor:\tIntel Corporation\nSDevice:\tDevice 782f\nRev:\t10\n\nSlot:\t0000:fe:0a.4\nClass:\tSystem peripheral\nVendor:\tIntel Corporation\nDevice:\tDevice 782f\nSVendor:\tIntel Corporation\nSDevice:\tDevice 782f\nRev:\t10\n\nSlot:\t0000:fe:0a.5\nClass:\tSystem peripheral\nVendor:\tIntel Corporation\nDevice:\tDevice 782f\nSVendor:\tIntel Corporation\nSDevice:\tDevice 782f\nRev:\t10\n\nSlot:\t0000:fe:0a.6\nClass:\tSystem peripheral\nVendor:\tIntel Corporation\nDevice:\tDevice 782f\nSVendor:\tIntel Corporation\nSDevice:\tDevice 782f\nRev:\t10\n\nSlot:\t0000:fe:0a.7\nClass:\tSystem peripheral\nVendor:\tIntel Corporation\nDevice:\tDevice 782f\nSVendor:\tIntel Corporation\nSDevice:\tDevice 782f\nRev:\t10\n\nSlot:\t0000:fe:0b.0\nClass:\tSystem peripheral\nVendor:\tIntel Corporation\nDevice:\tDevice 782f\nSVendor:\tIntel Corporation\nSDevice:\tDevice 782f\nRev:\t10\n\nSlot:\t0000:fe:0b.1\nClass:\tSystem peripheral\nVendor:\tIntel Corporation\nDevice:\tDevice 782f\nSVendor:\tIntel Corporation\nSDevice:\tDevice 782f\nRev:\t10\n\nSlot:\t0000:fe:0b.2\nClass:\tSystem peripheral\nVendor:\tIntel Corporation\nDevice:\tDevice 782f\nSVendor:\tIntel Corporation\nSDevice:\tDevice 782f\nRev:\t10\n\nSlot:\t0000:fe:0b.3\nClass:\tSystem peripheral\nVendor:\tIntel Corporation\nDevice:\tDevice 782f\nSVendor:\tIntel Corporation\nSDevice:\tDevice 782f\nRev:\t10\n\nSlot:\t0000:fe:0b.4\nClass:\tSystem peripheral\nVendor:\tIntel Corporation\nDevice:\tDevice 782f\nSVendor:\tIntel Corporation\nSDevice:\tDevice 782f\nRev:\t10\n\nSlot:\t0000:fe:0b.5\nClass:\tSystem peripheral\nVendor:\tIntel Corporation\nDevice:\tDevice 782f\nSVendor:\tIntel Corporation\nSDevice:\tDevice 782f\nRev:\t10\n\nSlot:\t0000:fe:0b.6\nClass:\tSystem peripheral\nVendor:\tIntel Corporation\nDevice:\tDevice 782f\nSVendor:\tIntel Corporation\nSDevice:\tDevice 782f\nRev:\t10\n\nSlot:\t0000:fe:0b.7\nClass:\tSystem peripheral\nVendor:\tIntel Corporation\nDevice:\tDevice 782f\nSVendor:\tIntel Corporation\nSDevice:\tDevice 782f\nRev:\t10\n\nSlot:\t0000:fe:0c.0\nClass:\tSystem peripheral\nVendor:\tIntel Corporation\nDevice:\tDevice 782f\nSVendor:\tIntel Corporation\nSDevice:\tDevice 782f\nRev:\t10\n\nSlot:\t0000:fe:0c.1\nClass:\tSystem peripheral\nVendor:\tIntel Corporation\nDevice:\tDevice 782f\nSVendor:\tIntel Corporation\nSDevice:\tDevice 782f\nRev:\t10\n\nSlot:\t0000:fe:0c.2\nClass:\tSystem peripheral\nVendor:\tIntel Corporation\nDevice:\tDevice 782f\nSVendor:\tIntel Corporation\nSDevice:\tDevice 782f\nRev:\t10\n\nSlot:\t0000:fe:0c.3\nClass:\tSystem peripheral\nVendor:\tIntel Corporation\nDevice:\tDevice 782f\nSVendor:\tIntel Corporation\nSDevice:\tDevice 782f\nRev:\t10\n\nSlot:\t0000:fe:0c.4\nClass:\tSystem peripheral\nVendor:\tIntel Corporation\nDevice:\tDevice 782f\nSVendor:\tIntel Corporation\nSDevice:\tDevice 782f\nRev:\t10\n\nSlot:\t0000:fe:0c.5\nClass:\tSystem peripheral\nVendor:\tIntel Corporation\nDevice:\tDevice 782f\nSVendor:\tIntel Corporation\nSDevice:\tDevice 782f\nRev:\t10\n\nSlot:\t0000:fe:0e.0\nClass:\tSystem peripheral\nVendor:\tIntel Corporation\nDevice:\tDevice 782c\nSVendor:\tIntel Corporation\nSDevice:\tDevice 782c\nRev:\t10\n\nSlot:\t0000:fe:0e.1\nClass:\tSystem peripheral\nVendor:\tIntel Corporation\nDevice:\tDevice 782c\nSVendor:\tIntel Corporation\nSDevice:\tDevice 782c\nRev:\t10\n\nSlot:\t0000:fe:0e.2\nClass:\tSystem peripheral\nVendor:\tIntel Corporation\nDevice:\tDevice 782c\nSVendor:\tIntel Corporation\nSDevice:\tDevice 782c\nRev:\t10\n\nSlot:\t0000:fe:0e.3\nClass:\tSystem peripheral\nVendor:\tIntel Corporation\nDevice:\tDevice 782c\nSVendor:\tIntel Corporation\nSDevice:\tDevice 782c\nRev:\t10\n\nSlot:\t0000:fe:0e.4\nClass:\tSystem peripheral\nVendor:\tIntel Corporation\nDevice:\tDevice 782c\nSVendor:\tIntel Corporation\nSDevice:\tDevice 782c\nRev:\t10\n\nSlot:\t0000:fe:0e.5\nClass:\tSystem peripheral\nVendor:\tIntel Corporation\nDevice:\tDevice 782c\nSVendor:\tIntel Corporation\nSDevice:\tDevice 782c\nRev:\t10\n\nSlot:\t0000:fe:0e.6\nClass:\tSystem peripheral\nVendor:\tIntel Corporation\nDevice:\tDevice 782c\nSVendor:\tIntel Corporation\nSDevice:\tDevice 782c\nRev:\t10\n\nSlot:\t0000:fe:0e.7\nClass:\tSystem peripheral\nVendor:\tIntel Corporation\nDevice:\tDevice 782c\nSVendor:\tIntel Corporation\nSDevice:\tDevice 782c\nRev:\t10\n\nSlot:\t0000:fe:0f.0\nClass:\tSystem peripheral\nVendor:\tIntel Corporation\nDevice:\tDevice 782c\nSVendor:\tIntel Corporation\nSDevice:\tDevice 782c\nRev:\t10\n\nSlot:\t0000:fe:0f.1\nClass:\tSystem peripheral\nVendor:\tIntel Corporation\nDevice:\tDevice 782c\nSVendor:\tIntel Corporation\nSDevice:\tDevice 782c\nRev:\t10\n\nSlot:\t0000:fe:0f.2\nClass:\tSystem peripheral\nVendor:\tIntel Corporation\nDevice:\tDevice 782c\nSVendor:\tIntel Corporation\nSDevice:\tDevice 782c\nRev:\t10\n\nSlot:\t0000:fe:0f.3\nClass:\tSystem peripheral\nVendor:\tIntel Corporation\nDevice:\tDevice 782c\nSVendor:\tIntel Corporation\nSDevice:\tDevice 782c\nRev:\t10\n\nSlot:\t0000:fe:0f.4\nClass:\tSystem peripheral\nVendor:\tIntel Corporation\nDevice:\tDevice 782c\nSVendor:\tIntel Corporation\nSDevice:\tDevice 782c\nRev:\t10\n\nSlot:\t0000:fe:0f.5\nClass:\tSystem peripheral\nVendor:\tIntel Corporation\nDevice:\tDevice 782c\nSVendor:\tIntel Corporation\nSDevice:\tDevice 782c\nRev:\t10\n\nSlot:\t0000:fe:0f.6\nClass:\tSystem peripheral\nVendor:\tIntel Corporation\nDevice:\tDevice 782c\nSVendor:\tIntel Corporation\nSDevice:\tDevice 782c\nRev:\t10\n\nSlot:\t0000:fe:0f.7\nClass:\tSystem peripheral\nVendor:\tIntel Corporation\nDevice:\tDevice 782c\nSVendor:\tIntel Corporation\nSDevice:\tDevice 782c\nRev:\t10\n\nSlot:\t0000:fe:10.0\nClass:\tSystem peripheral\nVendor:\tIntel Corporation\nDevice:\tDevice 782c\nSVendor:\tIntel Corporation\nSDevice:\tDevice 782c\nRev:\t10\n\nSlot:\t0000:fe:10.1\nClass:\tSystem peripheral\nVendor:\tIntel Corporation\nDevice:\tDevice 782c\nSVendor:\tIntel Corporation\nSDevice:\tDevice 782c\nRev:\t10\n\nSlot:\t0000:fe:10.2\nClass:\tSystem peripheral\nVendor:\tIntel Corporation\nDevice:\tDevice 782c\nSVendor:\tIntel Corporation\nSDevice:\tDevice 782c\nRev:\t10\n\nSlot:\t0000:fe:10.3\nClass:\tSystem peripheral\nVendor:\tIntel Corporation\nDevice:\tDevice 782c\nSVendor:\tIntel Corporation\nSDevice:\tDevice 782c\nRev:\t10\n\nSlot:\t0000:fe:10.4\nClass:\tSystem peripheral\nVendor:\tIntel Corporation\nDevice:\tDevice 782c\nSVendor:\tIntel Corporation\nSDevice:\tDevice 782c\nRev:\t10\n\nSlot:\t0000:fe:10.5\nClass:\tSystem peripheral\nVendor:\tIntel Corporation\nDevice:\tDevice 782c\nSVendor:\tIntel Corporation\nSDevice:\tDevice 782c\nRev:\t10\n\nSlot:\t0000:fe:10.6\nClass:\tSystem peripheral\nVendor:\tIntel Corporation\nDevice:\tDevice 782c\nSVendor:\tIntel Corporation\nSDevice:\tDevice 782c\nRev:\t10\n\nSlot:\t0000:fe:10.7\nClass:\tSystem peripheral\nVendor:\tIntel Corporation\nDevice:\tDevice 782c\nSVendor:\tIntel Corporation\nSDevice:\tDevice 782c\nRev:\t10\n\nSlot:\t0000:fe:11.0\nClass:\tSystem peripheral\nVendor:\tIntel Corporation\nDevice:\tDevice 782c\nSVendor:\tIntel Corporation\nSDevice:\tDevice 782c\nRev:\t10\n\nSlot:\t0000:fe:11.1\nClass:\tSystem peripheral\nVendor:\tIntel Corporation\nDevice:\tDevice 782c\nSVendor:\tIntel Corporation\nSDevice:\tDevice 782c\nRev:\t10\n\nSlot:\t0000:fe:11.2\nClass:\tSystem peripheral\nVendor:\tIntel Corporation\nDevice:\tDevice 782c\nSVendor:\tIntel Corporation\nSDevice:\tDevice 782c\nRev:\t10\n\nSlot:\t0000:fe:11.3\nClass:\tSystem peripheral\nVendor:\tIntel Corporation\nDevice:\tDevice 782c\nSVendor:\tIntel Corporation\nSDevice:\tDevice 782c\nRev:\t10\n\nSlot:\t0000:fe:11.4\nClass:\tSystem peripheral\nVendor:\tIntel Corporation\nDevice:\tDevice 782c\nSVendor:\tIntel Corporation\nSDevice:\tDevice 782c\nRev:\t10\n\nSlot:\t0000:fe:11.5\nClass:\tSystem peripheral\nVendor:\tIntel Corporation\nDevice:\tDevice 782c\nSVendor:\tIntel Corporation\nSDevice:\tDevice 782c\nRev:\t10\n\nSlot:\t0000:fe:11.6\nClass:\tSystem peripheral\nVendor:\tIntel Corporation\nDevice:\tDevice 782c\nSVendor:\tIntel Corporation\nSDevice:\tDevice 782c\nRev:\t10\n\nSlot:\t0000:fe:11.7\nClass:\tSystem peripheral\nVendor:\tIntel Corporation\nDevice:\tDevice 782c\nSVendor:\tIntel Corporation\nSDevice:\tDevice 782c\nRev:\t10\n\nSlot:\t0000:fe:12.0\nClass:\tSystem peripheral\nVendor:\tIntel Corporation\nDevice:\tDevice 782c\nSVendor:\tIntel Corporation\nSDevice:\tDevice 782c\nRev:\t10\n\nSlot:\t0000:fe:12.1\nClass:\tSystem peripheral\nVendor:\tIntel Corporation\nDevice:\tDevice 782c\nSVendor:\tIntel Corporation\nSDevice:\tDevice 782c\nRev:\t10\n\nSlot:\t0000:fe:12.2\nClass:\tSystem peripheral\nVendor:\tIntel Corporation\nDevice:\tDevice 782c\nSVendor:\tIntel Corporation\nSDevice:\tDevice 782c\nRev:\t10\n\nSlot:\t0000:fe:12.3\nClass:\tSystem peripheral\nVendor:\tIntel Corporation\nDevice:\tDevice 782c\nSVendor:\tIntel Corporation\nSDevice:\tDevice 782c\nRev:\t10\n\nSlot:\t0000:fe:12.4\nClass:\tSystem peripheral\nVendor:\tIntel Corporation\nDevice:\tDevice 782c\nSVendor:\tIntel Corporation\nSDevice:\tDevice 782c\nRev:\t10\n\nSlot:\t0000:fe:12.5\nClass:\tSystem peripheral\nVendor:\tIntel Corporation\nDevice:\tDevice 782c\nSVendor:\tIntel Corporation\nSDevice:\tDevice 782c\nRev:\t10\n\nSlot:\t0000:fe:14.0\nClass:\tSystem peripheral\nVendor:\tIntel Corporation\nDevice:\tDevice 781f\nSVendor:\tIntel Corporation\nSDevice:\tDevice 781f\nRev:\t10\n\nSlot:\t0000:fe:14.1\nClass:\tSystem peripheral\nVendor:\tIntel Corporation\nDevice:\tDevice 781f\nSVendor:\tIntel Corporation\nSDevice:\tDevice 781f\nRev:\t10\n\nSlot:\t0000:fe:14.2\nClass:\tSystem peripheral\nVendor:\tIntel Corporation\nDevice:\tDevice 781f\nSVendor:\tIntel Corporation\nSDevice:\tDevice 781f\nRev:\t10\n\nSlot:\t0000:fe:14.3\nClass:\tSystem peripheral\nVendor:\tIntel Corporation\nDevice:\tDevice 781f\nSVendor:\tIntel Corporation\nSDevice:\tDevice 781f\nRev:\t10\n\nSlot:\t0000:fe:14.4\nClass:\tSystem peripheral\nVendor:\tIntel Corporation\nDevice:\tDevice 781f\nSVendor:\tIntel Corporation\nSDevice:\tDevice 781f\nRev:\t10\n\nSlot:\t0000:fe:14.5\nClass:\tSystem peripheral\nVendor:\tIntel Corporation\nDevice:\tDevice 781f\nSVendor:\tIntel Corporation\nSDevice:\tDevice 781f\nRev:\t10\n\nSlot:\t0000:fe:14.6\nClass:\tSystem peripheral\nVendor:\tIntel Corporation\nDevice:\tDevice 781f\nSVendor:\tIntel Corporation\nSDevice:\tDevice 781f\nRev:\t10\n\nSlot:\t0000:fe:14.7\nClass:\tSystem peripheral\nVendor:\tIntel Corporation\nDevice:\tDevice 781f\nSVendor:\tIntel Corporation\nSDevice:\tDevice 781f\nRev:\t10\n\nSlot:\t0000:fe:15.0\nClass:\tSystem peripheral\nVendor:\tIntel Corporation\nDevice:\tDevice 781f\nSVendor:\tIntel Corporation\nSDevice:\tDevice 781f\nRev:\t10\n\nSlot:\t0000:fe:15.1\nClass:\tSystem peripheral\nVendor:\tIntel Corporation\nDevice:\tDevice 781f\nSVendor:\tIntel Corporation\nSDevice:\tDevice 781f\nRev:\t10\n\nSlot:\t0000:fe:15.2\nClass:\tSystem peripheral\nVendor:\tIntel Corporation\nDevice:\tDevice 781f\nSVendor:\tIntel Corporation\nSDevice:\tDevice 781f\nRev:\t10\n\nSlot:\t0000:fe:15.3\nClass:\tSystem peripheral\nVendor:\tIntel Corporation\nDevice:\tDevice 781f\nSVendor:\tIntel Corporation\nSDevice:\tDevice 781f\nRev:\t10\n\nSlot:\t0000:fe:15.4\nClass:\tSystem peripheral\nVendor:\tIntel Corporation\nDevice:\tDevice 781f\nSVendor:\tIntel Corporation\nSDevice:\tDevice 781f\nRev:\t10\n\nSlot:\t0000:fe:15.5\nClass:\tSystem peripheral\nVendor:\tIntel Corporation\nDevice:\tDevice 781f\nSVendor:\tIntel Corporation\nSDevice:\tDevice 781f\nRev:\t10\n\nSlot:\t0000:fe:15.6\nClass:\tSystem peripheral\nVendor:\tIntel Corporation\nDevice:\tDevice 781f\nSVendor:\tIntel Corporation\nSDevice:\tDevice 781f\nRev:\t10\n\nSlot:\t0000:fe:15.7\nClass:\tSystem peripheral\nVendor:\tIntel Corporation\nDevice:\tDevice 781f\nSVendor:\tIntel Corporation\nSDevice:\tDevice 781f\nRev:\t10\n\nSlot:\t0000:fe:16.0\nClass:\tSystem peripheral\nVendor:\tIntel Corporation\nDevice:\tDevice 781f\nSVendor:\tIntel Corporation\nSDevice:\tDevice 781f\nRev:\t10\n\nSlot:\t0000:fe:16.1\nClass:\tSystem peripheral\nVendor:\tIntel Corporation\nDevice:\tDevice 781f\nSVendor:\tIntel Corporation\nSDevice:\tDevice 781f\nRev:\t10\n\nSlot:\t0000:fe:16.2\nClass:\tSystem peripheral\nVendor:\tIntel Corporation\nDevice:\tDevice 781f\nSVendor:\tIntel Corporation\nSDevice:\tDevice 781f\nRev:\t10\n\nSlot:\t0000:fe:16.3\nClass:\tSystem peripheral\nVendor:\tIntel Corporation\nDevice:\tDevice 781f\nSVendor:\tIntel Corporation\nSDevice:\tDevice 781f\nRev:\t10\n\nSlot:\t0000:fe:16.4\nClass:\tSystem peripheral\nVendor:\tIntel Corporation\nDevice:\tDevice 781f\nSVendor:\tIntel Corporation\nSDevice:\tDevice 781f\nRev:\t10\n\nSlot:\t0000:fe:16.5\nClass:\tSystem peripheral\nVendor:\tIntel Corporation\nDevice:\tDevice 781f\nSVendor:\tIntel Corporation\nSDevice:\tDevice 781f\nRev:\t10\n\nSlot:\t0000:fe:16.6\nClass:\tSystem peripheral\nVendor:\tIntel Corporation\nDevice:\tDevice 781f\nSVendor:\tIntel Corporation\nSDevice:\tDevice 781f\nRev:\t10\n\nSlot:\t0000:fe:16.7\nClass:\tSystem peripheral\nVendor:\tIntel Corporation\nDevice:\tDevice 781f\nSVendor:\tIntel Corporation\nSDevice:\tDevice 781f\nRev:\t10\n\nSlot:\t0000:fe:17.0\nClass:\tSystem peripheral\nVendor:\tIntel Corporation\nDevice:\tDevice 781f\nSVendor:\tIntel Corporation\nSDevice:\tDevice 781f\nRev:\t10\n\nSlot:\t0000:fe:17.1\nClass:\tSystem peripheral\nVendor:\tIntel Corporation\nDevice:\tDevice 781f\nSVendor:\tIntel Corporation\nSDevice:\tDevice 781f\nRev:\t10\n\nSlot:\t0000:fe:17.2\nClass:\tSystem peripheral\nVendor:\tIntel Corporation\nDevice:\tDevice 781f\nSVendor:\tIntel Corporation\nSDevice:\tDevice 781f\nRev:\t10\n\nSlot:\t0000:fe:17.3\nClass:\tSystem peripheral\nVendor:\tIntel Corporation\nDevice:\tDevice 781f\nSVendor:\tIntel Corporation\nSDevice:\tDevice 781f\nRev:\t10\n\nSlot:\t0000:fe:17.4\nClass:\tSystem peripheral\nVendor:\tIntel Corporation\nDevice:\tDevice 781f\nSVendor:\tIntel Corporation\nSDevice:\tDevice 781f\nRev:\t10\n\nSlot:\t0000:fe:17.5\nClass:\tSystem peripheral\nVendor:\tIntel Corporation\nDevice:\tDevice 781f\nSVendor:\tIntel Corporation\nSDevice:\tDevice 781f\nRev:\t10\n\nSlot:\t0000:fe:17.6\nClass:\tSystem peripheral\nVendor:\tIntel Corporation\nDevice:\tDevice 781f\nSVendor:\tIntel Corporation\nSDevice:\tDevice 781f\nRev:\t10\n\nSlot:\t0000:fe:17.7\nClass:\tSystem peripheral\nVendor:\tIntel Corporation\nDevice:\tDevice 781f\nSVendor:\tIntel Corporation\nSDevice:\tDevice 781f\nRev:\t10\n\nSlot:\t0000:fe:18.0\nClass:\tSystem peripheral\nVendor:\tIntel Corporation\nDevice:\tDevice 781f\nSVendor:\tIntel Corporation\nSDevice:\tDevice 781f\nRev:\t10\n\nSlot:\t0000:fe:18.1\nClass:\tSystem peripheral\nVendor:\tIntel Corporation\nDevice:\tDevice 781f\nSVendor:\tIntel Corporation\nSDevice:\tDevice 781f\nRev:\t10\n\nSlot:\t0000:fe:18.2\nClass:\tSystem peripheral\nVendor:\tIntel Corporation\nDevice:\tDevice 781f\nSVendor:\tIntel Corporation\nSDevice:\tDevice 781f\nRev:\t10\n\nSlot:\t0000:fe:18.3\nClass:\tSystem peripheral\nVendor:\tIntel Corporation\nDevice:\tDevice 781f\nSVendor:\tIntel Corporation\nSDevice:\tDevice 781f\nRev:\t10\n\nSlot:\t0000:fe:18.4\nClass:\tSystem peripheral\nVendor:\tIntel Corporation\nDevice:\tDevice 781f\nSVendor:\tIntel Corporation\nSDevice:\tDevice 781f\nRev:\t10\n\nSlot:\t0000:fe:18.5\nClass:\tSystem peripheral\nVendor:\tIntel Corporation\nDevice:\tDevice 781f\nSVendor:\tIntel Corporation\nSDevice:\tDevice 781f\nRev:\t10\n\nSlot:\t0000:fe:1d.0\nClass:\tSystem peripheral\nVendor:\tIntel Corporation\nDevice:\tDevice 782a\nSVendor:\tIntel Corporation\nSDevice:\tDevice 782a\nRev:\t10\nDriver:\tsbridge_edac\nModule:\tsb_edac\n\nSlot:\t0000:fe:1d.1\nClass:\tSystem peripheral\nVendor:\tIntel Corporation\nDevice:\tDevice 782b\nSVendor:\tIntel Corporation\nSDevice:\tDevice 782b\nRev:\t10\n\nSlot:\t0000:fe:1d.2\nClass:\tSystem peripheral\nVendor:\tIntel Corporation\nDevice:\tDevice 782e\nSVendor:\tIntel Corporation\nSDevice:\tDevice 782f\nRev:\t10\n\nSlot:\t0000:fe:1d.3\nClass:\tSystem peripheral\nVendor:\tIntel Corporation\nDevice:\tDevice 782d\nSVendor:\tIntel Corporation\nSDevice:\tDevice 782d\nRev:\t10\n\nSlot:\t0000:fe:1e.0\nClass:\tSystem peripheral\nVendor:\tIntel Corporation\nDevice:\tDevice 7820\nSVendor:\tIntel Corporation\nSDevice:\tDevice 7820\nRev:\t10\n\nSlot:\t0000:fe:1e.1\nClass:\tSystem peripheral\nVendor:\tIntel Corporation\nDevice:\tDevice 7821\nSVendor:\tIntel Corporation\nSDevice:\tDevice 7821\nRev:\t10\n\nSlot:\t0000:fe:1e.2\nClass:\tSystem peripheral\nVendor:\tIntel Corporation\nDevice:\tDevice 7822\nSVendor:\tIntel Corporation\nSDevice:\tDevice 7822\nRev:\t10\n\nSlot:\t0000:fe:1e.3\nClass:\tSystem peripheral\nVendor:\tIntel Corporation\nDevice:\tDevice 7823\nSVendor:\tIntel Corporation\nSDevice:\tDevice 7823\nRev:\t10\n\nSlot:\t0000:fe:1e.4\nClass:\tSystem peripheral\nVendor:\tIntel Corporation\nDevice:\tDevice 7824\nSVendor:\tIntel Corporation\nSDevice:\tDevice 7824\nRev:\t10\n\nSlot:\t0000:fe:1e.5\nClass:\tSystem peripheral\nVendor:\tIntel Corporation\nDevice:\tDevice 7825\nSVendor:\tIntel Corporation\nSDevice:\tDevice 7825\nRev:\t10\n\nSlot:\t0000:fe:1e.6\nClass:\tSystem peripheral\nVendor:\tIntel Corporation\nDevice:\tDevice 7826\nSVendor:\tIntel Corporation\nSDevice:\tDevice 7826\nRev:\t10\n\nSlot:\t0000:ff:08.0\nClass:\tSystem peripheral\nVendor:\tIntel Corporation\nDevice:\tDevice 7840\nSVendor:\tIntel Corporation\nSDevice:\tDevice 35cb\nRev:\t10\n\nSlot:\t0000:ff:08.1\nClass:\tSystem peripheral\nVendor:\tIntel Corporation\nDevice:\tDevice 7842\nSVendor:\tIntel Corporation\nSDevice:\tDevice 35cb\nRev:\t10\n\nSlot:\t0000:ff:08.2\nClass:\tSystem peripheral\nVendor:\tIntel Corporation\nDevice:\tDevice 7843\nSVendor:\tIntel Corporation\nSDevice:\tDevice 35cb\nRev:\t10\nDriver:\tknl_uncore\n\nSlot:\t0000:ff:08.3\nClass:\tSystem peripheral\nVendor:\tIntel Corporation\nDevice:\tDevice 7843\nSVendor:\tIntel Corporation\nSDevice:\tDevice 35cb\nRev:\t10\nDriver:\tknl_uncore\n\nSlot:\t0000:ff:08.4\nClass:\tSystem peripheral\nVendor:\tIntel Corporation\nDevice:\tDevice 7843\nSVendor:\tIntel Corporation\nSDevice:\tDevice 35cb\nRev:\t10\nDriver:\tknl_uncore\n\nSlot:\t0000:ff:09.0\nClass:\tSystem peripheral\nVendor:\tIntel Corporation\nDevice:\tDevice 7840\nSVendor:\tIntel Corporation\nSDevice:\tDevice 35cb\nRev:\t10\n\nSlot:\t0000:ff:09.1\nClass:\tSystem peripheral\nVendor:\tIntel Corporation\nDevice:\tDevice 7842\nSVendor:\tIntel Corporation\nSDevice:\tDevice 35cb\nRev:\t10\n\nSlot:\t0000:ff:09.2\nClass:\tSystem peripheral\nVendor:\tIntel Corporation\nDevice:\tDevice 7843\nSVendor:\tIntel Corporation\nSDevice:\tDevice 35cb\nRev:\t10\nDriver:\tknl_uncore\n\nSlot:\t0000:ff:09.3\nClass:\tSystem peripheral\nVendor:\tIntel Corporation\nDevice:\tDevice 7843\nSVendor:\tIntel Corporation\nSDevice:\tDevice 35cb\nRev:\t10\nDriver:\tknl_uncore\n\nSlot:\t0000:ff:09.4\nClass:\tSystem peripheral\nVendor:\tIntel Corporation\nDevice:\tDevice 7843\nSVendor:\tIntel Corporation\nSDevice:\tDevice 35cb\nRev:\t10\nDriver:\tknl_uncore\n\nSlot:\t0000:ff:0a.0\nClass:\tSystem peripheral\nVendor:\tIntel Corporation\nDevice:\tDevice 7841\nSVendor:\tIntel Corporation\nSDevice:\tDevice 35cb\nRev:\t10\nDriver:\tknl_uncore\n\nSlot:\t0000:ff:0a.1\nClass:\tSystem peripheral\nVendor:\tIntel Corporation\nDevice:\tDevice 7844\nSVendor:\tIntel Corporation\nSDevice:\tDevice 35cb\nRev:\t10\n\nSlot:\t0000:ff:0a.2\nClass:\tSystem peripheral\nVendor:\tIntel Corporation\nDevice:\tDevice 781f\nSVendor:\tIntel Corporation\nSDevice:\tDevice 35cb\nRev:\t10\n\nSlot:\t0000:ff:0b.0\nClass:\tSystem peripheral\nVendor:\tIntel Corporation\nDevice:\tDevice 7841\nSVendor:\tIntel Corporation\nSDevice:\tDevice 35cb\nRev:\t10\nDriver:\tknl_uncore\n\nSlot:\t0000:ff:0b.1\nClass:\tSystem peripheral\nVendor:\tIntel Corporation\nDevice:\tDevice 7844\nSVendor:\tIntel Corporation\nSDevice:\tDevice 35cb\nRev:\t10\n\nSlot:\t0000:ff:0b.2\nClass:\tSystem peripheral\nVendor:\tIntel Corporation\nDevice:\tDevice 781f\nSVendor:\tIntel Corporation\nSDevice:\tDevice 35cb\nRev:\t10\n\nSlot:\t0000:ff:0c.0\nClass:\tSystem peripheral\nVendor:\tIntel Corporation\nDevice:\tDevice 7816\nSVendor:\tIntel Corporation\nSDevice:\tDevice 35cb\nRev:\t10\n\nSlot:\t0000:ff:0c.1\nClass:\tPerformance counters\nVendor:\tIntel Corporation\nDevice:\tDevice 7817\nSVendor:\tIntel Corporation\nSDevice:\tDevice 35cb\nRev:\t10\nDriver:\tknl_uncore\n\nSlot:\t0000:ff:0c.2\nClass:\tSystem peripheral\nVendor:\tIntel Corporation\nDevice:\tDevice 781f\nSVendor:\tIntel Corporation\nSDevice:\tDevice 35cb\nRev:\t10\n\nSlot:\t0000:ff:0f.0\nClass:\tSystem peripheral\nVendor:\tIntel Corporation\nDevice:\tDevice 7833\nSVendor:\tIntel Corporation\nSDevice:\tDevice 35cb\nRev:\t10\nDriver:\tknl_uncore\n\nSlot:\t0000:ff:0f.1\nClass:\tSystem peripheral\nVendor:\tIntel Corporation\nDevice:\tDevice 7839\nSVendor:\tIntel Corporation\nSDevice:\tDevice 35cb\nRev:\t10\n\nSlot:\t0000:ff:0f.2\nClass:\tSystem peripheral\nVendor:\tIntel Corporation\nDevice:\tDevice 781f\nSVendor:\tIntel Corporation\nSDevice:\tDevice 35cb\nRev:\t10\n\nSlot:\t0000:ff:10.0\nClass:\tSystem peripheral\nVendor:\tIntel Corporation\nDevice:\tDevice 7833\nSVendor:\tIntel Corporation\nSDevice:\tDevice 35cb\nRev:\t10\nDriver:\tknl_uncore\n\nSlot:\t0000:ff:10.1\nClass:\tSystem peripheral\nVendor:\tIntel Corporation\nDevice:\tDevice 7839\nSVendor:\tIntel Corporation\nSDevice:\tDevice 35cb\nRev:\t10\n\nSlot:\t0000:ff:10.2\nClass:\tSystem peripheral\nVendor:\tIntel Corporation\nDevice:\tDevice 781f\nSVendor:\tIntel Corporation\nSDevice:\tDevice 35cb\nRev:\t10\n\nSlot:\t0000:ff:10.5\nClass:\tSystem peripheral\nVendor:\tIntel Corporation\nDevice:\tDevice 7848\nRev:\t10\n\nSlot:\t0000:ff:10.6\nClass:\tSystem peripheral\nVendor:\tIntel Corporation\nDevice:\tDevice 7848\nRev:\t10\n\nSlot:\t0000:ff:10.7\nClass:\tSystem peripheral\nVendor:\tIntel Corporation\nDevice:\tDevice 7848\nRev:\t10\n\nSlot:\t0000:ff:11.0\nClass:\tSystem peripheral\nVendor:\tIntel Corporation\nDevice:\tDevice 7833\nSVendor:\tIntel Corporation\nSDevice:\tDevice 35cb\nRev:\t10\nDriver:\tknl_uncore\n\nSlot:\t0000:ff:11.1\nClass:\tSystem peripheral\nVendor:\tIntel Corporation\nDevice:\tDevice 7839\nSVendor:\tIntel Corporation\nSDevice:\tDevice 35cb\nRev:\t10\n\nSlot:\t0000:ff:11.2\nClass:\tSystem peripheral\nVendor:\tIntel Corporation\nDevice:\tDevice 781f\nSVendor:\tIntel Corporation\nSDevice:\tDevice 35cb\nRev:\t10\n\nSlot:\t0000:ff:11.5\nClass:\tSystem peripheral\nVendor:\tIntel Corporation\nDevice:\tDevice 7849\nRev:\t10\n\nSlot:\t0000:ff:11.6\nClass:\tSystem peripheral\nVendor:\tIntel Corporation\nDevice:\tDevice 7849\nRev:\t10\n\nSlot:\t0000:ff:11.7\nClass:\tSystem peripheral\nVendor:\tIntel Corporation\nDevice:\tDevice 7849\nRev:\t10\n\nSlot:\t0000:ff:12.0\nClass:\tSystem peripheral\nVendor:\tIntel Corporation\nDevice:\tDevice 7833\nSVendor:\tIntel Corporation\nSDevice:\tDevice 35cb\nRev:\t10\nDriver:\tknl_uncore\n\nSlot:\t0000:ff:12.1\nClass:\tSystem peripheral\nVendor:\tIntel Corporation\nDevice:\tDevice 7839\nSVendor:\tIntel Corporation\nSDevice:\tDevice 35cb\nRev:\t10\n\nSlot:\t0000:ff:12.2\nClass:\tSystem peripheral\nVendor:\tIntel Corporation\nDevice:\tDevice 781f\nSVendor:\tIntel Corporation\nSDevice:\tDevice 35cb\nRev:\t10\n\nSlot:\t0000:ff:12.5\nClass:\tSystem peripheral\nVendor:\tIntel Corporation\nDevice:\tDevice 7848\nRev:\t10\n\nSlot:\t0000:ff:12.6\nClass:\tSystem peripheral\nVendor:\tIntel Corporation\nDevice:\tDevice 7848\nRev:\t10\n\nSlot:\t0000:ff:12.7\nClass:\tSystem peripheral\nVendor:\tIntel Corporation\nDevice:\tDevice 7848\nRev:\t10\n\nSlot:\t0000:ff:13.0\nClass:\tSystem peripheral\nVendor:\tIntel Corporation\nDevice:\tDevice 7833\nSVendor:\tIntel Corporation\nSDevice:\tDevice 35cb\nRev:\t10\nDriver:\tknl_uncore\n\nSlot:\t0000:ff:13.1\nClass:\tSystem peripheral\nVendor:\tIntel Corporation\nDevice:\tDevice 7839\nSVendor:\tIntel Corporation\nSDevice:\tDevice 35cb\nRev:\t10\n\nSlot:\t0000:ff:13.2\nClass:\tSystem peripheral\nVendor:\tIntel Corporation\nDevice:\tDevice 781f\nSVendor:\tIntel Corporation\nSDevice:\tDevice 35cb\nRev:\t10\n\nSlot:\t0000:ff:13.5\nClass:\tSystem peripheral\nVendor:\tIntel Corporation\nDevice:\tDevice 7849\nRev:\t10\n\nSlot:\t0000:ff:13.6\nClass:\tSystem peripheral\nVendor:\tIntel Corporation\nDevice:\tDevice 7849\nRev:\t10\n\nSlot:\t0000:ff:13.7\nClass:\tSystem peripheral\nVendor:\tIntel Corporation\nDevice:\tDevice 7849\nRev:\t10\n\nSlot:\t0000:ff:14.0\nClass:\tSystem peripheral\nVendor:\tIntel Corporation\nDevice:\tDevice 7833\nSVendor:\tIntel Corporation\nSDevice:\tDevice 35cb\nRev:\t10\nDriver:\tknl_uncore\n\nSlot:\t0000:ff:14.1\nClass:\tSystem peripheral\nVendor:\tIntel Corporation\nDevice:\tDevice 7839\nSVendor:\tIntel Corporation\nSDevice:\tDevice 35cb\nRev:\t10\n\nSlot:\t0000:ff:14.2\nClass:\tSystem peripheral\nVendor:\tIntel Corporation\nDevice:\tDevice 781f\nSVendor:\tIntel Corporation\nSDevice:\tDevice 35cb\nRev:\t10\n\nSlot:\t0000:ff:14.6\nClass:\tSystem peripheral\nVendor:\tIntel Corporation\nDevice:\tDevice 7845\nRev:\t10\n\nSlot:\t0000:ff:14.7\nClass:\tSystem peripheral\nVendor:\tIntel Corporation\nDevice:\tDevice 7846\nRev:\t10\n\nSlot:\t0000:ff:15.0\nClass:\tSystem peripheral\nVendor:\tIntel Corporation\nDevice:\tDevice 7833\nSVendor:\tIntel Corporation\nSDevice:\tDevice 35cb\nRev:\t10\nDriver:\tknl_uncore\n\nSlot:\t0000:ff:15.1\nClass:\tSystem peripheral\nVendor:\tIntel Corporation\nDevice:\tDevice 7839\nSVendor:\tIntel Corporation\nSDevice:\tDevice 35cb\nRev:\t10\n\nSlot:\t0000:ff:15.2\nClass:\tSystem peripheral\nVendor:\tIntel Corporation\nDevice:\tDevice 781f\nSVendor:\tIntel Corporation\nSDevice:\tDevice 35cb\nRev:\t10\n\nSlot:\t0000:ff:15.6\nClass:\tSystem peripheral\nVendor:\tIntel Corporation\nDevice:\tDevice 7845\nRev:\t10\n\nSlot:\t0000:ff:15.7\nClass:\tSystem peripheral\nVendor:\tIntel Corporation\nDevice:\tDevice 7847\nRev:\t10\n\nSlot:\t0000:ff:16.0\nClass:\tSystem peripheral\nVendor:\tIntel Corporation\nDevice:\tDevice 7833\nSVendor:\tIntel Corporation\nSDevice:\tDevice 35cb\nRev:\t10\nDriver:\tknl_uncore\n\nSlot:\t0000:ff:16.1\nClass:\tSystem peripheral\nVendor:\tIntel Corporation\nDevice:\tDevice 7839\nSVendor:\tIntel Corporation\nSDevice:\tDevice 35cb\nRev:\t10\n\nSlot:\t0000:ff:16.2\nClass:\tSystem peripheral\nVendor:\tIntel Corporation\nDevice:\tDevice 781f\nSVendor:\tIntel Corporation\nSDevice:\tDevice 35cb\nRev:\t10\n\nSlot:\t0000:ff:18.0\nClass:\tSystem peripheral\nVendor:\tIntel Corporation\nDevice:\tDevice 7831\nSVendor:\tIntel Corporation\nSDevice:\tDevice 35cb\nRev:\t10\n\nSlot:\t0000:ff:18.1\nClass:\tSystem peripheral\nVendor:\tIntel Corporation\nDevice:\tDevice 7837\nSVendor:\tIntel Corporation\nSDevice:\tDevice 35cb\nRev:\t10\n\nSlot:\t0000:ff:18.2\nClass:\tSystem peripheral\nVendor:\tIntel Corporation\nDevice:\tDevice 7835\nSVendor:\tIntel Corporation\nSDevice:\tDevice 35cb\nRev:\t10\nDriver:\tknl_uncore\n\nSlot:\t0000:ff:19.0\nClass:\tSystem peripheral\nVendor:\tIntel Corporation\nDevice:\tDevice 7831\nSVendor:\tIntel Corporation\nSDevice:\tDevice 35cb\nRev:\t10\n\nSlot:\t0000:ff:19.1\nClass:\tSystem peripheral\nVendor:\tIntel Corporation\nDevice:\tDevice 7837\nSVendor:\tIntel Corporation\nSDevice:\tDevice 35cb\nRev:\t10\n\nSlot:\t0000:ff:19.2\nClass:\tSystem peripheral\nVendor:\tIntel Corporation\nDevice:\tDevice 7835\nSVendor:\tIntel Corporation\nSDevice:\tDevice 35cb\nRev:\t10\nDriver:\tknl_uncore\n\nSlot:\t0000:ff:1a.0\nClass:\tSystem peripheral\nVendor:\tIntel Corporation\nDevice:\tDevice 7831\nSVendor:\tIntel Corporation\nSDevice:\tDevice 35cb\nRev:\t10\n\nSlot:\t0000:ff:1a.1\nClass:\tSystem peripheral\nVendor:\tIntel Corporation\nDevice:\tDevice 7837\nSVendor:\tIntel Corporation\nSDevice:\tDevice 35cb\nRev:\t10\n\nSlot:\t0000:ff:1a.2\nClass:\tSystem peripheral\nVendor:\tIntel Corporation\nDevice:\tDevice 7835\nSVendor:\tIntel Corporation\nSDevice:\tDevice 35cb\nRev:\t10\nDriver:\tknl_uncore\n\nSlot:\t0000:ff:1b.0\nClass:\tSystem peripheral\nVendor:\tIntel Corporation\nDevice:\tDevice 7831\nSVendor:\tIntel Corporation\nSDevice:\tDevice 35cb\nRev:\t10\n\nSlot:\t0000:ff:1b.1\nClass:\tSystem peripheral\nVendor:\tIntel Corporation\nDevice:\tDevice 7837\nSVendor:\tIntel Corporation\nSDevice:\tDevice 35cb\nRev:\t10\n\nSlot:\t0000:ff:1b.2\nClass:\tSystem peripheral\nVendor:\tIntel Corporation\nDevice:\tDevice 7835\nSVendor:\tIntel Corporation\nSDevice:\tDevice 35cb\nRev:\t10\nDriver:\tknl_uncore\n\nSlot:\t0000:ff:1c.0\nClass:\tSystem peripheral\nVendor:\tIntel Corporation\nDevice:\tDevice 7831\nSVendor:\tIntel Corporation\nSDevice:\tDevice 35cb\nRev:\t10\n\nSlot:\t0000:ff:1c.1\nClass:\tSystem peripheral\nVendor:\tIntel Corporation\nDevice:\tDevice 7837\nSVendor:\tIntel Corporation\nSDevice:\tDevice 35cb\nRev:\t10\n\nSlot:\t0000:ff:1c.2\nClass:\tSystem peripheral\nVendor:\tIntel Corporation\nDevice:\tDevice 7835\nSVendor:\tIntel Corporation\nSDevice:\tDevice 35cb\nRev:\t10\nDriver:\tknl_uncore\n\nSlot:\t0000:ff:1d.0\nClass:\tSystem peripheral\nVendor:\tIntel Corporation\nDevice:\tDevice 7831\nSVendor:\tIntel Corporation\nSDevice:\tDevice 35cb\nRev:\t10\n\nSlot:\t0000:ff:1d.1\nClass:\tSystem peripheral\nVendor:\tIntel Corporation\nDevice:\tDevice 7837\nSVendor:\tIntel Corporation\nSDevice:\tDevice 35cb\nRev:\t10\n\nSlot:\t0000:ff:1d.2\nClass:\tSystem peripheral\nVendor:\tIntel Corporation\nDevice:\tDevice 7835\nSVendor:\tIntel Corporation\nSDevice:\tDevice 35cb\nRev:\t10\nDriver:\tknl_uncore\n\nSlot:\t0000:ff:1e.0\nClass:\tSystem peripheral\nVendor:\tIntel Corporation\nDevice:\tDevice 7831\nSVendor:\tIntel Corporation\nSDevice:\tDevice 35cb\nRev:\t10\n\nSlot:\t0000:ff:1e.1\nClass:\tSystem peripheral\nVendor:\tIntel Corporation\nDevice:\tDevice 7837\nSVendor:\tIntel Corporation\nSDevice:\tDevice 35cb\nRev:\t10\n\nSlot:\t0000:ff:1e.2\nClass:\tSystem peripheral\nVendor:\tIntel Corporation\nDevice:\tDevice 7835\nSVendor:\tIntel Corporation\nSDevice:\tDevice 35cb\nRev:\t10\nDriver:\tknl_uncore\n\nSlot:\t0000:ff:1f.0\nClass:\tSystem peripheral\nVendor:\tIntel Corporation\nDevice:\tDevice 7831\nSVendor:\tIntel Corporation\nSDevice:\tDevice 35cb\nRev:\t10\n\nSlot:\t0000:ff:1f.1\nClass:\tSystem peripheral\nVendor:\tIntel Corporation\nDevice:\tDevice 7837\nSVendor:\tIntel Corporation\nSDevice:\tDevice 35cb\nRev:\t10\n\nSlot:\t0000:ff:1f.2\nClass:\tSystem peripheral\nVendor:\tIntel Corporation\nDevice:\tDevice 7835\nSVendor:\tIntel Corporation\nSDevice:\tDevice 35cb\nRev:\t10\nDriver:\tknl_uncore\n\n\n'
p68
sS'numactl --hardware'
p69
S'available: 2 nodes (0-1)\nnode 0 cpus: 0 1 2 3 4 5 6 7 8 9 10 11 12 13 14 15 16 17 18 19 20 21 22 23 24 25 26 27 28 29 30 31 32 33 34 35 36 37 38 39 40 41 42 43 44 45 46 47 48 49 50 51 52 53 54 55 56 57 58 59 60 61 62 63 64 65 66 67 68 69 70 71 72 73 74 75 76 77 78 79 80 81 82 83 84 85 86 87 88 89 90 91 92 93 94 95 96 97 98 99 100 101 102 103 104 105 106 107 108 109 110 111 112 113 114 115 116 117 118 119 120 121 122 123 124 125 126 127 128 129 130 131 132 133 134 135 136 137 138 139 140 141 142 143 144 145 146 147 148 149 150 151 152 153 154 155 156 157 158 159 160 161 162 163 164 165 166 167 168 169 170 171 172 173 174 175 176 177 178 179 180 181 182 183 184 185 186 187 188 189 190 191 192 193 194 195 196 197 198 199 200 201 202 203 204 205 206 207 208 209 210 211 212 213 214 215 216 217 218 219 220 221 222 223 224 225 226 227 228 229 230 231 232 233 234 235 236 237 238 239 240 241 242 243 244 245 246 247 248 249 250 251 252 253 254 255 256 257 258 259 260 261 262 263 264 265 266 267 268 269 270 271 272 273 274 275 276 277 278 279 280 281 282 283 284 285 286 287\nnode 0 size: 98207 MB\nnode 0 free: 94752 MB\nnode 1 cpus:\nnode 1 size: 16384 MB\nnode 1 free: 15811 MB\nnode distances:\nnode   0   1 \n  0:  10  31 \n  1:  31  10 \n\n'
p70
sS'dmidecode -t slot'
p71
S'# dmidecode 3.0\nScanning /dev/mem for entry point.\n\n/dev/mem: Permission denied\n'
p72
sS'cat /proc/cmdline'
p73
S'BOOT_IMAGE=/boot/vmlinuz-3.10.0-514.10.2.el7.x86_64 root=UUID=c7c0788e-f15e-4412-af36-a59481f74d5e ro crashkernel=auto intel_iommu=on hugepagesz=2048k hugepages=0 hugepagesz=1048576k hugepages=0\n\n'
p74
sS'uname --hardware-platform'
p75
S'x86_64\n\n'
p76
sS'dmidecode -t memory'
p77
S'# dmidecode 3.0\nScanning /dev/mem for entry point.\n\n/dev/mem: Permission denied\n'
p78
sS'uname --operating-system'
p79
S'GNU/Linux\n\n'
p80
sS'dmidecode -t cache'
p81
S'# dmidecode 3.0\nScanning /dev/mem for entry point.\n\n/dev/mem: Permission denied\n'
p82
sS'dmidecode -t connector'
p83
S'# dmidecode 3.0\nScanning /dev/mem for entry point.\n\n/dev/mem: Permission denied\n'
p84
sS'dmidecode -t system'
p85
S'# dmidecode 3.0\nScanning /dev/mem for entry point.\n\n/dev/mem: Permission denied\n'
p86
sS'uname --nodename'
p87
S'Linpack01\n\n'
p88
ssbsbsS'_xName'
p89
(dp90
S'linpack'
p91
S'matrix_size'
p92
sS'stream'
p93
S'omp_num_threads'
p94
sS'libxsmm_conv'
p95
g94
sS'dgemm'
p96
S'K_size'
p97
sS'hpcg'
p98
S'problem_size'
p99
sS'hplinpack'
p100
g99
sS'sgemm'
p101
g97
sS'fio'
p102
S'size'
p103
sS'mkl_conv'
p104
g94
ssS'_store'
p105
(dp106
g91
(dp107
S'local__mcdram_7290_redhat-7.3_micperf-1.6.0_local_scaling'
p108
(lp109
g1
(cmicp.stats
Stats
p110
g3
NtRp111
(dp112
S'params'
p113
g1
(cmicp.params
Params
p114
g3
NtRp115
(dp116
S'_paramNames'
p117
(lp118
g94
ag92
aS'num_rep'
p119
aS'lead_dim'
p120
asS'_defaults'
p121
(dp122
g94
S'72'
p123
sg120
S'36928'
p124
sg92
S'36864'
p125
sg119
S'3'
ssS'_params'
p126
(dp127
g94
S'72'
p128
sg120
S'2112'
p129
sg92
S'2048'
p130
sg119
S'3'
ssS'_paramQuiet'
p131
(lp132
g94
asbsS'perf'
p133
(dp134
S'Computation.Avg'
p135
(dp136
S'units'
p137
S'GFlops'
p138
sS'rollup'
p139
I01
sS'value'
p140
S'150.3932'
p141
sssS'desc'
p142
S'2048 x 2048 MKL DP LINPACK with 72 threads and 3 iterations'
p143
sbag1
(g110
g3
NtRp144
(dp145
g113
g1
(g114
g3
NtRp146
(dp147
g117
(lp148
g94
ag92
ag119
ag120
asg121
(dp149
g94
g123
sg120
g124
sg92
g125
sg119
S'3'
ssg126
(dp150
g94
S'72'
p151
sg120
S'4160'
p152
sg92
S'4096'
p153
sg119
S'3'
ssg131
(lp154
g94
asbsg133
(dp155
g135
(dp156
g137
g138
sg139
I01
sg140
S'431.7903'
p157
sssg142
S'4096 x 4096 MKL DP LINPACK with 72 threads and 3 iterations'
p158
sbag1
(g110
g3
NtRp159
(dp160
g113
g1
(g114
g3
NtRp161
(dp162
g117
(lp163
g94
ag92
ag119
ag120
asg121
(dp164
g94
g123
sg120
g124
sg92
g125
sg119
S'3'
ssg126
(dp165
g94
S'72'
p166
sg120
S'6208'
p167
sg92
S'6144'
p168
sg119
S'3'
ssg131
(lp169
g94
asbsg133
(dp170
g135
(dp171
g137
g138
sg139
I01
sg140
S'850.1413'
p172
sssg142
S'6144 x 6144 MKL DP LINPACK with 72 threads and 3 iterations'
p173
sbag1
(g110
g3
NtRp174
(dp175
g113
g1
(g114
g3
NtRp176
(dp177
g117
(lp178
g94
ag92
ag119
ag120
asg121
(dp179
g94
g123
sg120
g124
sg92
g125
sg119
S'3'
ssg126
(dp180
g94
S'72'
p181
sg120
S'8256'
p182
sg92
S'8192'
p183
sg119
S'3'
ssg131
(lp184
g94
asbsg133
(dp185
g135
(dp186
g137
g138
sg139
I01
sg140
S'1183.9158'
p187
sssg142
S'8192 x 8192 MKL DP LINPACK with 72 threads and 3 iterations'
p188
sbag1
(g110
g3
NtRp189
(dp190
g113
g1
(g114
g3
NtRp191
(dp192
g117
(lp193
g94
ag92
ag119
ag120
asg121
(dp194
g94
g123
sg120
g124
sg92
g125
sg119
S'3'
ssg126
(dp195
g94
S'72'
p196
sg120
S'10304'
p197
sg92
S'10240'
p198
sg119
S'3'
ssg131
(lp199
g94
asbsg133
(dp200
g135
(dp201
g137
g138
sg139
I01
sg140
S'1436.0745'
p202
sssg142
S'10240 x 10240 MKL DP LINPACK with 72 threads and 3 iterations'
p203
sbag1
(g110
g3
NtRp204
(dp205
g113
g1
(g114
g3
NtRp206
(dp207
g117
(lp208
g94
ag92
ag119
ag120
asg121
(dp209
g94
g123
sg120
g124
sg92
g125
sg119
S'3'
ssg126
(dp210
g94
S'72'
p211
sg120
S'12352'
p212
sg92
S'12288'
p213
sg119
S'3'
ssg131
(lp214
g94
asbsg133
(dp215
g135
(dp216
g137
g138
sg139
I01
sg140
S'1632.0128'
p217
sssg142
S'12288 x 12288 MKL DP LINPACK with 72 threads and 3 iterations'
p218
sbag1
(g110
g3
NtRp219
(dp220
g113
g1
(g114
g3
NtRp221
(dp222
g117
(lp223
g94
ag92
ag119
ag120
asg121
(dp224
g94
g123
sg120
g124
sg92
g125
sg119
S'3'
ssg126
(dp225
g94
S'72'
p226
sg120
S'14400'
p227
sg92
S'14336'
p228
sg119
S'3'
ssg131
(lp229
g94
asbsg133
(dp230
g135
(dp231
g137
g138
sg139
I01
sg140
S'1701.7669'
p232
sssg142
S'14336 x 14336 MKL DP LINPACK with 72 threads and 3 iterations'
p233
sbag1
(g110
g3
NtRp234
(dp235
g113
g1
(g114
g3
NtRp236
(dp237
g117
(lp238
g94
ag92
ag119
ag120
asg121
(dp239
g94
g123
sg120
g124
sg92
g125
sg119
S'3'
ssg126
(dp240
g94
S'72'
p241
sg120
S'16448'
p242
sg92
S'16384'
p243
sg119
S'3'
ssg131
(lp244
g94
asbsg133
(dp245
g135
(dp246
g137
g138
sg139
I01
sg140
S'1797.5450'
p247
sssg142
S'16384 x 16384 MKL DP LINPACK with 72 threads and 3 iterations'
p248
sbag1
(g110
g3
NtRp249
(dp250
g113
g1
(g114
g3
NtRp251
(dp252
g117
(lp253
g94
ag92
ag119
ag120
asg121
(dp254
g94
g123
sg120
g124
sg92
g125
sg119
S'3'
ssg126
(dp255
g94
S'72'
p256
sg120
S'18496'
p257
sg92
S'18432'
p258
sg119
S'3'
ssg131
(lp259
g94
asbsg133
(dp260
g135
(dp261
g137
g138
sg139
I01
sg140
S'1844.9541'
p262
sssg142
S'18432 x 18432 MKL DP LINPACK with 72 threads and 3 iterations'
p263
sbag1
(g110
g3
NtRp264
(dp265
g113
g1
(g114
g3
NtRp266
(dp267
g117
(lp268
g94
ag92
ag119
ag120
asg121
(dp269
g94
g123
sg120
g124
sg92
g125
sg119
S'3'
ssg126
(dp270
g94
S'72'
p271
sg120
S'20544'
p272
sg92
S'20480'
p273
sg119
S'3'
ssg131
(lp274
g94
asbsg133
(dp275
g135
(dp276
g137
g138
sg139
I01
sg140
S'1862.2696'
p277
sssg142
S'20480 x 20480 MKL DP LINPACK with 72 threads and 3 iterations'
p278
sbag1
(g110
g3
NtRp279
(dp280
g113
g1
(g114
g3
NtRp281
(dp282
g117
(lp283
g94
ag92
ag119
ag120
asg121
(dp284
g94
g123
sg120
g124
sg92
g125
sg119
S'3'
ssg126
(dp285
g94
S'72'
p286
sg120
S'22592'
p287
sg92
S'22528'
p288
sg119
S'3'
ssg131
(lp289
g94
asbsg133
(dp290
g135
(dp291
g137
g138
sg139
I01
sg140
S'1900.6510'
p292
sssg142
S'22528 x 22528 MKL DP LINPACK with 72 threads and 3 iterations'
p293
sbag1
(g110
g3
NtRp294
(dp295
g113
g1
(g114
g3
NtRp296
(dp297
g117
(lp298
g94
ag92
ag119
ag120
asg121
(dp299
g94
g123
sg120
g124
sg92
g125
sg119
S'3'
ssg126
(dp300
g94
S'72'
p301
sg120
S'24640'
p302
sg92
S'24576'
p303
sg119
S'3'
ssg131
(lp304
g94
asbsg133
(dp305
g135
(dp306
g137
g138
sg139
I01
sg140
S'1916.5287'
p307
sssg142
S'24576 x 24576 MKL DP LINPACK with 72 threads and 3 iterations'
p308
sbag1
(g110
g3
NtRp309
(dp310
g113
g1
(g114
g3
NtRp311
(dp312
g117
(lp313
g94
ag92
ag119
ag120
asg121
(dp314
g94
g123
sg120
g124
sg92
g125
sg119
S'3'
ssg126
(dp315
g94
S'72'
p316
sg120
S'26688'
p317
sg92
S'26624'
p318
sg119
S'3'
ssg131
(lp319
g94
asbsg133
(dp320
g135
(dp321
g137
g138
sg139
I01
sg140
S'1940.2203'
p322
sssg142
S'26624 x 26624 MKL DP LINPACK with 72 threads and 3 iterations'
p323
sbag1
(g110
g3
NtRp324
(dp325
g113
g1
(g114
g3
NtRp326
(dp327
g117
(lp328
g94
ag92
ag119
ag120
asg121
(dp329
g94
g123
sg120
g124
sg92
g125
sg119
S'3'
ssg126
(dp330
g94
S'72'
p331
sg120
S'28736'
p332
sg92
S'28672'
p333
sg119
S'3'
ssg131
(lp334
g94
asbsg133
(dp335
g135
(dp336
g137
g138
sg139
I01
sg140
S'1938.3216'
p337
sssg142
S'28672 x 28672 MKL DP LINPACK with 72 threads and 3 iterations'
p338
sbag1
(g110
g3
NtRp339
(dp340
g113
g1
(g114
g3
NtRp341
(dp342
g117
(lp343
g94
ag92
ag119
ag120
asg121
(dp344
g94
g123
sg120
g124
sg92
g125
sg119
S'3'
ssg126
(dp345
g94
S'72'
p346
sg120
S'30784'
p347
sg92
S'30720'
p348
sg119
S'3'
ssg131
(lp349
g94
asbsg133
(dp350
g135
(dp351
g137
g138
sg139
I01
sg140
S'1975.3582'
p352
sssg142
S'30720 x 30720 MKL DP LINPACK with 72 threads and 3 iterations'
p353
sbag1
(g110
g3
NtRp354
(dp355
g113
g1
(g114
g3
NtRp356
(dp357
g117
(lp358
g94
ag92
ag119
ag120
asg121
(dp359
g94
g123
sg120
g124
sg92
g125
sg119
S'3'
ssg126
(dp360
g94
S'72'
p361
sg120
S'32832'
p362
sg92
S'32768'
p363
sg119
S'3'
ssg131
(lp364
g94
asbsg133
(dp365
g135
(dp366
g137
g138
sg139
I01
sg140
S'1976.6340'
p367
sssg142
S'32768 x 32768 MKL DP LINPACK with 72 threads and 3 iterations'
p368
sbag1
(g110
g3
NtRp369
(dp370
g113
g1
(g114
g3
NtRp371
(dp372
g117
(lp373
g94
ag92
ag119
ag120
asg121
(dp374
g94
g123
sg120
g124
sg92
g125
sg119
S'3'
ssg126
(dp375
g94
S'72'
p376
sg120
S'34880'
p377
sg92
S'34816'
p378
sg119
S'3'
ssg131
(lp379
g94
asbsg133
(dp380
g135
(dp381
g137
g138
sg139
I01
sg140
S'1982.3675'
p382
sssg142
S'34816 x 34816 MKL DP LINPACK with 72 threads and 3 iterations'
p383
sbag1
(g110
g3
NtRp384
(dp385
g113
g1
(g114
g3
NtRp386
(dp387
g117
(lp388
g94
ag92
ag119
ag120
asg121
(dp389
g94
g123
sg120
g124
sg92
g125
sg119
S'3'
ssg126
(dp390
g94
S'72'
p391
sg120
S'36928'
p392
sg92
S'36864'
p393
sg119
S'3'
ssg131
(lp394
g94
asbsg133
(dp395
g135
(dp396
g137
g138
sg139
I01
sg140
S'1986.6870'
p397
sssg142
S'36864 x 36864 MKL DP LINPACK with 72 threads and 3 iterations'
p398
sbassg93
(dp399
S'local__mcdram_7290_redhat-7.3_micperf-1.6.0_local_scaling'
p400
(lp401
g1
(g110
g3
NtRp402
(dp403
g113
g1
(g114
g3
NtRp404
(dp405
g117
(lp406
g94
asg121
(dp407
g94
S'72'
p408
ssg126
(dp409
g94
S'1'
ssg131
(lp410
g94
asbsg133
(dp411
S'Task.Bandwidth'
p412
(dp413
g137
S'GB/s'
p414
sg139
I01
sg140
S'15.5792'
p415
sssg142
S'STREAM version $Revision: 5.10 $ with 1 threads'
p416
sbag1
(g110
g3
NtRp417
(dp418
g113
g1
(g114
g3
NtRp419
(dp420
g117
(lp421
g94
asg121
(dp422
g94
g408
ssg126
(dp423
g94
S'2'
ssg131
(lp424
g94
asbsg133
(dp425
g412
(dp426
g137
g414
sg139
I01
sg140
S'20.8252'
p427
sssg142
S'STREAM version $Revision: 5.10 $ with 2 threads'
p428
sbag1
(g110
g3
NtRp429
(dp430
g113
g1
(g114
g3
NtRp431
(dp432
g117
(lp433
g94
asg121
(dp434
g94
g408
ssg126
(dp435
g94
S'3'
ssg131
(lp436
g94
asbsg133
(dp437
g412
(dp438
g137
g414
sg139
I01
sg140
S'29.9176'
p439
sssg142
S'STREAM version $Revision: 5.10 $ with 3 threads'
p440
sbag1
(g110
g3
NtRp441
(dp442
g113
g1
(g114
g3
NtRp443
(dp444
g117
(lp445
g94
asg121
(dp446
g94
g408
ssg126
(dp447
g94
S'4'
ssg131
(lp448
g94
asbsg133
(dp449
g412
(dp450
g137
g414
sg139
I01
sg140
S'39.8248'
p451
sssg142
S'STREAM version $Revision: 5.10 $ with 4 threads'
p452
sbag1
(g110
g3
NtRp453
(dp454
g113
g1
(g114
g3
NtRp455
(dp456
g117
(lp457
g94
asg121
(dp458
g94
g408
ssg126
(dp459
g94
S'5'
ssg131
(lp460
g94
asbsg133
(dp461
g412
(dp462
g137
g414
sg139
I01
sg140
S'49.8056'
p463
sssg142
S'STREAM version $Revision: 5.10 $ with 5 threads'
p464
sbag1
(g110
g3
NtRp465
(dp466
g113
g1
(g114
g3
NtRp467
(dp468
g117
(lp469
g94
asg121
(dp470
g94
g408
ssg126
(dp471
g94
S'6'
ssg131
(lp472
g94
asbsg133
(dp473
g412
(dp474
g137
g414
sg139
I01
sg140
S'59.6827'
p475
sssg142
S'STREAM version $Revision: 5.10 $ with 6 threads'
p476
sbag1
(g110
g3
NtRp477
(dp478
g113
g1
(g114
g3
NtRp479
(dp480
g117
(lp481
g94
asg121
(dp482
g94
g408
ssg126
(dp483
g94
S'7'
ssg131
(lp484
g94
asbsg133
(dp485
g412
(dp486
g137
g414
sg139
I01
sg140
S'69.5279'
p487
sssg142
S'STREAM version $Revision: 5.10 $ with 7 threads'
p488
sbag1
(g110
g3
NtRp489
(dp490
g113
g1
(g114
g3
NtRp491
(dp492
g117
(lp493
g94
asg121
(dp494
g94
g408
ssg126
(dp495
g94
S'8'
ssg131
(lp496
g94
asbsg133
(dp497
g412
(dp498
g137
g414
sg139
I01
sg140
S'79.4746'
p499
sssg142
S'STREAM version $Revision: 5.10 $ with 8 threads'
p500
sbag1
(g110
g3
NtRp501
(dp502
g113
g1
(g114
g3
NtRp503
(dp504
g117
(lp505
g94
asg121
(dp506
g94
g408
ssg126
(dp507
g94
S'9'
ssg131
(lp508
g94
asbsg133
(dp509
g412
(dp510
g137
g414
sg139
I01
sg140
S'89.3383'
p511
sssg142
S'STREAM version $Revision: 5.10 $ with 9 threads'
p512
sbag1
(g110
g3
NtRp513
(dp514
g113
g1
(g114
g3
NtRp515
(dp516
g117
(lp517
g94
asg121
(dp518
g94
g408
ssg126
(dp519
g94
S'10'
p520
ssg131
(lp521
g94
asbsg133
(dp522
g412
(dp523
g137
g414
sg139
I01
sg140
S'99.0141'
p524
sssg142
S'STREAM version $Revision: 5.10 $ with 10 threads'
p525
sbag1
(g110
g3
NtRp526
(dp527
g113
g1
(g114
g3
NtRp528
(dp529
g117
(lp530
g94
asg121
(dp531
g94
g408
ssg126
(dp532
g94
S'11'
p533
ssg131
(lp534
g94
asbsg133
(dp535
g412
(dp536
g137
g414
sg139
I01
sg140
S'109.0056'
p537
sssg142
S'STREAM version $Revision: 5.10 $ with 11 threads'
p538
sbag1
(g110
g3
NtRp539
(dp540
g113
g1
(g114
g3
NtRp541
(dp542
g117
(lp543
g94
asg121
(dp544
g94
g408
ssg126
(dp545
g94
S'12'
p546
ssg131
(lp547
g94
asbsg133
(dp548
g412
(dp549
g137
g414
sg139
I01
sg140
S'118.7373'
p550
sssg142
S'STREAM version $Revision: 5.10 $ with 12 threads'
p551
sbag1
(g110
g3
NtRp552
(dp553
g113
g1
(g114
g3
NtRp554
(dp555
g117
(lp556
g94
asg121
(dp557
g94
g408
ssg126
(dp558
g94
S'13'
p559
ssg131
(lp560
g94
asbsg133
(dp561
g412
(dp562
g137
g414
sg139
I01
sg140
S'128.5251'
p563
sssg142
S'STREAM version $Revision: 5.10 $ with 13 threads'
p564
sbag1
(g110
g3
NtRp565
(dp566
g113
g1
(g114
g3
NtRp567
(dp568
g117
(lp569
g94
asg121
(dp570
g94
g408
ssg126
(dp571
g94
S'14'
p572
ssg131
(lp573
g94
asbsg133
(dp574
g412
(dp575
g137
g414
sg139
I01
sg140
S'138.2293'
p576
sssg142
S'STREAM version $Revision: 5.10 $ with 14 threads'
p577
sbag1
(g110
g3
NtRp578
(dp579
g113
g1
(g114
g3
NtRp580
(dp581
g117
(lp582
g94
asg121
(dp583
g94
g408
ssg126
(dp584
g94
S'15'
p585
ssg131
(lp586
g94
asbsg133
(dp587
g412
(dp588
g137
g414
sg139
I01
sg140
S'148.1909'
p589
sssg142
S'STREAM version $Revision: 5.10 $ with 15 threads'
p590
sbag1
(g110
g3
NtRp591
(dp592
g113
g1
(g114
g3
NtRp593
(dp594
g117
(lp595
g94
asg121
(dp596
g94
g408
ssg126
(dp597
g94
S'16'
p598
ssg131
(lp599
g94
asbsg133
(dp600
g412
(dp601
g137
g414
sg139
I01
sg140
S'157.9574'
p602
sssg142
S'STREAM version $Revision: 5.10 $ with 16 threads'
p603
sbag1
(g110
g3
NtRp604
(dp605
g113
g1
(g114
g3
NtRp606
(dp607
g117
(lp608
g94
asg121
(dp609
g94
g408
ssg126
(dp610
g94
S'17'
p611
ssg131
(lp612
g94
asbsg133
(dp613
g412
(dp614
g137
g414
sg139
I01
sg140
S'167.319'
p615
sssg142
S'STREAM version $Revision: 5.10 $ with 17 threads'
p616
sbag1
(g110
g3
NtRp617
(dp618
g113
g1
(g114
g3
NtRp619
(dp620
g117
(lp621
g94
asg121
(dp622
g94
g408
ssg126
(dp623
g94
S'18'
p624
ssg131
(lp625
g94
asbsg133
(dp626
g412
(dp627
g137
g414
sg139
I01
sg140
S'176.835'
p628
sssg142
S'STREAM version $Revision: 5.10 $ with 18 threads'
p629
sbag1
(g110
g3
NtRp630
(dp631
g113
g1
(g114
g3
NtRp632
(dp633
g117
(lp634
g94
asg121
(dp635
g94
g408
ssg126
(dp636
g94
S'19'
p637
ssg131
(lp638
g94
asbsg133
(dp639
g412
(dp640
g137
g414
sg139
I01
sg140
S'186.7485'
p641
sssg142
S'STREAM version $Revision: 5.10 $ with 19 threads'
p642
sbag1
(g110
g3
NtRp643
(dp644
g113
g1
(g114
g3
NtRp645
(dp646
g117
(lp647
g94
asg121
(dp648
g94
g408
ssg126
(dp649
g94
S'20'
p650
ssg131
(lp651
g94
asbsg133
(dp652
g412
(dp653
g137
g414
sg139
I01
sg140
S'196.171'
p654
sssg142
S'STREAM version $Revision: 5.10 $ with 20 threads'
p655
sbag1
(g110
g3
NtRp656
(dp657
g113
g1
(g114
g3
NtRp658
(dp659
g117
(lp660
g94
asg121
(dp661
g94
g408
ssg126
(dp662
g94
S'21'
p663
ssg131
(lp664
g94
asbsg133
(dp665
g412
(dp666
g137
g414
sg139
I01
sg140
S'205.7634'
p667
sssg142
S'STREAM version $Revision: 5.10 $ with 21 threads'
p668
sbag1
(g110
g3
NtRp669
(dp670
g113
g1
(g114
g3
NtRp671
(dp672
g117
(lp673
g94
asg121
(dp674
g94
g408
ssg126
(dp675
g94
S'22'
p676
ssg131
(lp677
g94
asbsg133
(dp678
g412
(dp679
g137
g414
sg139
I01
sg140
S'215.3945'
p680
sssg142
S'STREAM version $Revision: 5.10 $ with 22 threads'
p681
sbag1
(g110
g3
NtRp682
(dp683
g113
g1
(g114
g3
NtRp684
(dp685
g117
(lp686
g94
asg121
(dp687
g94
g408
ssg126
(dp688
g94
S'23'
p689
ssg131
(lp690
g94
asbsg133
(dp691
g412
(dp692
g137
g414
sg139
I01
sg140
S'224.2647'
p693
sssg142
S'STREAM version $Revision: 5.10 $ with 23 threads'
p694
sbag1
(g110
g3
NtRp695
(dp696
g113
g1
(g114
g3
NtRp697
(dp698
g117
(lp699
g94
asg121
(dp700
g94
g408
ssg126
(dp701
g94
S'24'
p702
ssg131
(lp703
g94
asbsg133
(dp704
g412
(dp705
g137
g414
sg139
I01
sg140
S'233.7524'
p706
sssg142
S'STREAM version $Revision: 5.10 $ with 24 threads'
p707
sbag1
(g110
g3
NtRp708
(dp709
g113
g1
(g114
g3
NtRp710
(dp711
g117
(lp712
g94
asg121
(dp713
g94
g408
ssg126
(dp714
g94
S'25'
p715
ssg131
(lp716
g94
asbsg133
(dp717
g412
(dp718
g137
g414
sg139
I01
sg140
S'243.3869'
p719
sssg142
S'STREAM version $Revision: 5.10 $ with 25 threads'
p720
sbag1
(g110
g3
NtRp721
(dp722
g113
g1
(g114
g3
NtRp723
(dp724
g117
(lp725
g94
asg121
(dp726
g94
g408
ssg126
(dp727
g94
S'26'
p728
ssg131
(lp729
g94
asbsg133
(dp730
g412
(dp731
g137
g414
sg139
I01
sg140
S'252.8434'
p732
sssg142
S'STREAM version $Revision: 5.10 $ with 26 threads'
p733
sbag1
(g110
g3
NtRp734
(dp735
g113
g1
(g114
g3
NtRp736
(dp737
g117
(lp738
g94
asg121
(dp739
g94
g408
ssg126
(dp740
g94
S'27'
p741
ssg131
(lp742
g94
asbsg133
(dp743
g412
(dp744
g137
g414
sg139
I01
sg140
S'262.0694'
p745
sssg142
S'STREAM version $Revision: 5.10 $ with 27 threads'
p746
sbag1
(g110
g3
NtRp747
(dp748
g113
g1
(g114
g3
NtRp749
(dp750
g117
(lp751
g94
asg121
(dp752
g94
g408
ssg126
(dp753
g94
S'28'
p754
ssg131
(lp755
g94
asbsg133
(dp756
g412
(dp757
g137
g414
sg139
I01
sg140
S'270.7595'
p758
sssg142
S'STREAM version $Revision: 5.10 $ with 28 threads'
p759
sbag1
(g110
g3
NtRp760
(dp761
g113
g1
(g114
g3
NtRp762
(dp763
g117
(lp764
g94
asg121
(dp765
g94
g408
ssg126
(dp766
g94
S'29'
p767
ssg131
(lp768
g94
asbsg133
(dp769
g412
(dp770
g137
g414
sg139
I01
sg140
S'280.8514'
p771
sssg142
S'STREAM version $Revision: 5.10 $ with 29 threads'
p772
sbag1
(g110
g3
NtRp773
(dp774
g113
g1
(g114
g3
NtRp775
(dp776
g117
(lp777
g94
asg121
(dp778
g94
g408
ssg126
(dp779
g94
S'30'
p780
ssg131
(lp781
g94
asbsg133
(dp782
g412
(dp783
g137
g414
sg139
I01
sg140
S'288.7826'
p784
sssg142
S'STREAM version $Revision: 5.10 $ with 30 threads'
p785
sbag1
(g110
g3
NtRp786
(dp787
g113
g1
(g114
g3
NtRp788
(dp789
g117
(lp790
g94
asg121
(dp791
g94
g408
ssg126
(dp792
g94
S'31'
p793
ssg131
(lp794
g94
asbsg133
(dp795
g412
(dp796
g137
g414
sg139
I01
sg140
S'298.0133'
p797
sssg142
S'STREAM version $Revision: 5.10 $ with 31 threads'
p798
sbag1
(g110
g3
NtRp799
(dp800
g113
g1
(g114
g3
NtRp801
(dp802
g117
(lp803
g94
asg121
(dp804
g94
g408
ssg126
(dp805
g94
S'32'
p806
ssg131
(lp807
g94
asbsg133
(dp808
g412
(dp809
g137
g414
sg139
I01
sg140
S'306.5936'
p810
sssg142
S'STREAM version $Revision: 5.10 $ with 32 threads'
p811
sbag1
(g110
g3
NtRp812
(dp813
g113
g1
(g114
g3
NtRp814
(dp815
g117
(lp816
g94
asg121
(dp817
g94
g408
ssg126
(dp818
g94
S'33'
p819
ssg131
(lp820
g94
asbsg133
(dp821
g412
(dp822
g137
g414
sg139
I01
sg140
S'315.9923'
p823
sssg142
S'STREAM version $Revision: 5.10 $ with 33 threads'
p824
sbag1
(g110
g3
NtRp825
(dp826
g113
g1
(g114
g3
NtRp827
(dp828
g117
(lp829
g94
asg121
(dp830
g94
g408
ssg126
(dp831
g94
S'34'
p832
ssg131
(lp833
g94
asbsg133
(dp834
g412
(dp835
g137
g414
sg139
I01
sg140
S'324.7367'
p836
sssg142
S'STREAM version $Revision: 5.10 $ with 34 threads'
p837
sbag1
(g110
g3
NtRp838
(dp839
g113
g1
(g114
g3
NtRp840
(dp841
g117
(lp842
g94
asg121
(dp843
g94
g408
ssg126
(dp844
g94
S'35'
p845
ssg131
(lp846
g94
asbsg133
(dp847
g412
(dp848
g137
g414
sg139
I01
sg140
S'333.1154'
p849
sssg142
S'STREAM version $Revision: 5.10 $ with 35 threads'
p850
sbag1
(g110
g3
NtRp851
(dp852
g113
g1
(g114
g3
NtRp853
(dp854
g117
(lp855
g94
asg121
(dp856
g94
g408
ssg126
(dp857
g94
S'36'
p858
ssg131
(lp859
g94
asbsg133
(dp860
g412
(dp861
g137
g414
sg139
I01
sg140
S'341.3219'
p862
sssg142
S'STREAM version $Revision: 5.10 $ with 36 threads'
p863
sbag1
(g110
g3
NtRp864
(dp865
g113
g1
(g114
g3
NtRp866
(dp867
g117
(lp868
g94
asg121
(dp869
g94
g408
ssg126
(dp870
g94
S'37'
p871
ssg131
(lp872
g94
asbsg133
(dp873
g412
(dp874
g137
g414
sg139
I01
sg140
S'349.1654'
p875
sssg142
S'STREAM version $Revision: 5.10 $ with 37 threads'
p876
sbag1
(g110
g3
NtRp877
(dp878
g113
g1
(g114
g3
NtRp879
(dp880
g117
(lp881
g94
asg121
(dp882
g94
g408
ssg126
(dp883
g94
S'38'
p884
ssg131
(lp885
g94
asbsg133
(dp886
g412
(dp887
g137
g414
sg139
I01
sg140
S'357.4572'
p888
sssg142
S'STREAM version $Revision: 5.10 $ with 38 threads'
p889
sbag1
(g110
g3
NtRp890
(dp891
g113
g1
(g114
g3
NtRp892
(dp893
g117
(lp894
g94
asg121
(dp895
g94
g408
ssg126
(dp896
g94
S'39'
p897
ssg131
(lp898
g94
asbsg133
(dp899
g412
(dp900
g137
g414
sg139
I01
sg140
S'363.2005'
p901
sssg142
S'STREAM version $Revision: 5.10 $ with 39 threads'
p902
sbag1
(g110
g3
NtRp903
(dp904
g113
g1
(g114
g3
NtRp905
(dp906
g117
(lp907
g94
asg121
(dp908
g94
g408
ssg126
(dp909
g94
S'40'
p910
ssg131
(lp911
g94
asbsg133
(dp912
g412
(dp913
g137
g414
sg139
I01
sg140
S'373.627'
p914
sssg142
S'STREAM version $Revision: 5.10 $ with 40 threads'
p915
sbag1
(g110
g3
NtRp916
(dp917
g113
g1
(g114
g3
NtRp918
(dp919
g117
(lp920
g94
asg121
(dp921
g94
g408
ssg126
(dp922
g94
S'41'
p923
ssg131
(lp924
g94
asbsg133
(dp925
g412
(dp926
g137
g414
sg139
I01
sg140
S'381.0523'
p927
sssg142
S'STREAM version $Revision: 5.10 $ with 41 threads'
p928
sbag1
(g110
g3
NtRp929
(dp930
g113
g1
(g114
g3
NtRp931
(dp932
g117
(lp933
g94
asg121
(dp934
g94
g408
ssg126
(dp935
g94
S'42'
p936
ssg131
(lp937
g94
asbsg133
(dp938
g412
(dp939
g137
g414
sg139
I01
sg140
S'388.1696'
p940
sssg142
S'STREAM version $Revision: 5.10 $ with 42 threads'
p941
sbag1
(g110
g3
NtRp942
(dp943
g113
g1
(g114
g3
NtRp944
(dp945
g117
(lp946
g94
asg121
(dp947
g94
g408
ssg126
(dp948
g94
S'43'
p949
ssg131
(lp950
g94
asbsg133
(dp951
g412
(dp952
g137
g414
sg139
I01
sg140
S'394.9758'
p953
sssg142
S'STREAM version $Revision: 5.10 $ with 43 threads'
p954
sbag1
(g110
g3
NtRp955
(dp956
g113
g1
(g114
g3
NtRp957
(dp958
g117
(lp959
g94
asg121
(dp960
g94
g408
ssg126
(dp961
g94
S'44'
p962
ssg131
(lp963
g94
asbsg133
(dp964
g412
(dp965
g137
g414
sg139
I01
sg140
S'404.8291'
p966
sssg142
S'STREAM version $Revision: 5.10 $ with 44 threads'
p967
sbag1
(g110
g3
NtRp968
(dp969
g113
g1
(g114
g3
NtRp970
(dp971
g117
(lp972
g94
asg121
(dp973
g94
g408
ssg126
(dp974
g94
S'45'
p975
ssg131
(lp976
g94
asbsg133
(dp977
g412
(dp978
g137
g414
sg139
I01
sg140
S'411.3428'
p979
sssg142
S'STREAM version $Revision: 5.10 $ with 45 threads'
p980
sbag1
(g110
g3
NtRp981
(dp982
g113
g1
(g114
g3
NtRp983
(dp984
g117
(lp985
g94
asg121
(dp986
g94
g408
ssg126
(dp987
g94
S'46'
p988
ssg131
(lp989
g94
asbsg133
(dp990
g412
(dp991
g137
g414
sg139
I01
sg140
S'416.5019'
p992
sssg142
S'STREAM version $Revision: 5.10 $ with 46 threads'
p993
sbag1
(g110
g3
NtRp994
(dp995
g113
g1
(g114
g3
NtRp996
(dp997
g117
(lp998
g94
asg121
(dp999
g94
g408
ssg126
(dp1000
g94
S'47'
p1001
ssg131
(lp1002
g94
asbsg133
(dp1003
g412
(dp1004
g137
g414
sg139
I01
sg140
S'425.132'
p1005
sssg142
S'STREAM version $Revision: 5.10 $ with 47 threads'
p1006
sbag1
(g110
g3
NtRp1007
(dp1008
g113
g1
(g114
g3
NtRp1009
(dp1010
g117
(lp1011
g94
asg121
(dp1012
g94
g408
ssg126
(dp1013
g94
S'48'
p1014
ssg131
(lp1015
g94
asbsg133
(dp1016
g412
(dp1017
g137
g414
sg139
I01
sg140
S'432.3212'
p1018
sssg142
S'STREAM version $Revision: 5.10 $ with 48 threads'
p1019
sbag1
(g110
g3
NtRp1020
(dp1021
g113
g1
(g114
g3
NtRp1022
(dp1023
g117
(lp1024
g94
asg121
(dp1025
g94
g408
ssg126
(dp1026
g94
S'49'
p1027
ssg131
(lp1028
g94
asbsg133
(dp1029
g412
(dp1030
g137
g414
sg139
I01
sg140
S'438.4708'
p1031
sssg142
S'STREAM version $Revision: 5.10 $ with 49 threads'
p1032
sbag1
(g110
g3
NtRp1033
(dp1034
g113
g1
(g114
g3
NtRp1035
(dp1036
g117
(lp1037
g94
asg121
(dp1038
g94
g408
ssg126
(dp1039
g94
S'50'
p1040
ssg131
(lp1041
g94
asbsg133
(dp1042
g412
(dp1043
g137
g414
sg139
I01
sg140
S'444.8285'
p1044
sssg142
S'STREAM version $Revision: 5.10 $ with 50 threads'
p1045
sbag1
(g110
g3
NtRp1046
(dp1047
g113
g1
(g114
g3
NtRp1048
(dp1049
g117
(lp1050
g94
asg121
(dp1051
g94
g408
ssg126
(dp1052
g94
S'51'
p1053
ssg131
(lp1054
g94
asbsg133
(dp1055
g412
(dp1056
g137
g414
sg139
I01
sg140
S'448.7324'
p1057
sssg142
S'STREAM version $Revision: 5.10 $ with 51 threads'
p1058
sbag1
(g110
g3
NtRp1059
(dp1060
g113
g1
(g114
g3
NtRp1061
(dp1062
g117
(lp1063
g94
asg121
(dp1064
g94
g408
ssg126
(dp1065
g94
S'52'
p1066
ssg131
(lp1067
g94
asbsg133
(dp1068
g412
(dp1069
g137
g414
sg139
I01
sg140
S'453.5021'
p1070
sssg142
S'STREAM version $Revision: 5.10 $ with 52 threads'
p1071
sbag1
(g110
g3
NtRp1072
(dp1073
g113
g1
(g114
g3
NtRp1074
(dp1075
g117
(lp1076
g94
asg121
(dp1077
g94
g408
ssg126
(dp1078
g94
S'53'
p1079
ssg131
(lp1080
g94
asbsg133
(dp1081
g412
(dp1082
g137
g414
sg139
I01
sg140
S'458.5374'
p1083
sssg142
S'STREAM version $Revision: 5.10 $ with 53 threads'
p1084
sbag1
(g110
g3
NtRp1085
(dp1086
g113
g1
(g114
g3
NtRp1087
(dp1088
g117
(lp1089
g94
asg121
(dp1090
g94
g408
ssg126
(dp1091
g94
S'54'
p1092
ssg131
(lp1093
g94
asbsg133
(dp1094
g412
(dp1095
g137
g414
sg139
I01
sg140
S'463.0526'
p1096
sssg142
S'STREAM version $Revision: 5.10 $ with 54 threads'
p1097
sbag1
(g110
g3
NtRp1098
(dp1099
g113
g1
(g114
g3
NtRp1100
(dp1101
g117
(lp1102
g94
asg121
(dp1103
g94
g408
ssg126
(dp1104
g94
S'55'
p1105
ssg131
(lp1106
g94
asbsg133
(dp1107
g412
(dp1108
g137
g414
sg139
I01
sg140
S'469.2928'
p1109
sssg142
S'STREAM version $Revision: 5.10 $ with 55 threads'
p1110
sbag1
(g110
g3
NtRp1111
(dp1112
g113
g1
(g114
g3
NtRp1113
(dp1114
g117
(lp1115
g94
asg121
(dp1116
g94
g408
ssg126
(dp1117
g94
S'56'
p1118
ssg131
(lp1119
g94
asbsg133
(dp1120
g412
(dp1121
g137
g414
sg139
I01
sg140
S'471.7325'
p1122
sssg142
S'STREAM version $Revision: 5.10 $ with 56 threads'
p1123
sbag1
(g110
g3
NtRp1124
(dp1125
g113
g1
(g114
g3
NtRp1126
(dp1127
g117
(lp1128
g94
asg121
(dp1129
g94
g408
ssg126
(dp1130
g94
S'57'
p1131
ssg131
(lp1132
g94
asbsg133
(dp1133
g412
(dp1134
g137
g414
sg139
I01
sg140
S'473.5007'
p1135
sssg142
S'STREAM version $Revision: 5.10 $ with 57 threads'
p1136
sbag1
(g110
g3
NtRp1137
(dp1138
g113
g1
(g114
g3
NtRp1139
(dp1140
g117
(lp1141
g94
asg121
(dp1142
g94
g408
ssg126
(dp1143
g94
S'58'
p1144
ssg131
(lp1145
g94
asbsg133
(dp1146
g412
(dp1147
g137
g414
sg139
I01
sg140
S'476.8654'
p1148
sssg142
S'STREAM version $Revision: 5.10 $ with 58 threads'
p1149
sbag1
(g110
g3
NtRp1150
(dp1151
g113
g1
(g114
g3
NtRp1152
(dp1153
g117
(lp1154
g94
asg121
(dp1155
g94
g408
ssg126
(dp1156
g94
S'59'
p1157
ssg131
(lp1158
g94
asbsg133
(dp1159
g412
(dp1160
g137
g414
sg139
I01
sg140
S'476.9007'
p1161
sssg142
S'STREAM version $Revision: 5.10 $ with 59 threads'
p1162
sbag1
(g110
g3
NtRp1163
(dp1164
g113
g1
(g114
g3
NtRp1165
(dp1166
g117
(lp1167
g94
asg121
(dp1168
g94
g408
ssg126
(dp1169
g94
S'60'
p1170
ssg131
(lp1171
g94
asbsg133
(dp1172
g412
(dp1173
g137
g414
sg139
I01
sg140
S'476.1605'
p1174
sssg142
S'STREAM version $Revision: 5.10 $ with 60 threads'
p1175
sbag1
(g110
g3
NtRp1176
(dp1177
g113
g1
(g114
g3
NtRp1178
(dp1179
g117
(lp1180
g94
asg121
(dp1181
g94
g408
ssg126
(dp1182
g94
S'61'
p1183
ssg131
(lp1184
g94
asbsg133
(dp1185
g412
(dp1186
g137
g414
sg139
I01
sg140
S'474.9319'
p1187
sssg142
S'STREAM version $Revision: 5.10 $ with 61 threads'
p1188
sbag1
(g110
g3
NtRp1189
(dp1190
g113
g1
(g114
g3
NtRp1191
(dp1192
g117
(lp1193
g94
asg121
(dp1194
g94
g408
ssg126
(dp1195
g94
S'62'
p1196
ssg131
(lp1197
g94
asbsg133
(dp1198
g412
(dp1199
g137
g414
sg139
I01
sg140
S'472.0436'
p1200
sssg142
S'STREAM version $Revision: 5.10 $ with 62 threads'
p1201
sbag1
(g110
g3
NtRp1202
(dp1203
g113
g1
(g114
g3
NtRp1204
(dp1205
g117
(lp1206
g94
asg121
(dp1207
g94
g408
ssg126
(dp1208
g94
S'63'
p1209
ssg131
(lp1210
g94
asbsg133
(dp1211
g412
(dp1212
g137
g414
sg139
I01
sg140
S'470.2862'
p1213
sssg142
S'STREAM version $Revision: 5.10 $ with 63 threads'
p1214
sbag1
(g110
g3
NtRp1215
(dp1216
g113
g1
(g114
g3
NtRp1217
(dp1218
g117
(lp1219
g94
asg121
(dp1220
g94
g408
ssg126
(dp1221
g94
S'64'
p1222
ssg131
(lp1223
g94
asbsg133
(dp1224
g412
(dp1225
g137
g414
sg139
I01
sg140
S'469.8746'
p1226
sssg142
S'STREAM version $Revision: 5.10 $ with 64 threads'
p1227
sbag1
(g110
g3
NtRp1228
(dp1229
g113
g1
(g114
g3
NtRp1230
(dp1231
g117
(lp1232
g94
asg121
(dp1233
g94
g408
ssg126
(dp1234
g94
S'65'
p1235
ssg131
(lp1236
g94
asbsg133
(dp1237
g412
(dp1238
g137
g414
sg139
I01
sg140
S'468.4056'
p1239
sssg142
S'STREAM version $Revision: 5.10 $ with 65 threads'
p1240
sbag1
(g110
g3
NtRp1241
(dp1242
g113
g1
(g114
g3
NtRp1243
(dp1244
g117
(lp1245
g94
asg121
(dp1246
g94
g408
ssg126
(dp1247
g94
S'66'
p1248
ssg131
(lp1249
g94
asbsg133
(dp1250
g412
(dp1251
g137
g414
sg139
I01
sg140
S'466.709'
p1252
sssg142
S'STREAM version $Revision: 5.10 $ with 66 threads'
p1253
sbag1
(g110
g3
NtRp1254
(dp1255
g113
g1
(g114
g3
NtRp1256
(dp1257
g117
(lp1258
g94
asg121
(dp1259
g94
g408
ssg126
(dp1260
g94
S'67'
p1261
ssg131
(lp1262
g94
asbsg133
(dp1263
g412
(dp1264
g137
g414
sg139
I01
sg140
S'464.7562'
p1265
sssg142
S'STREAM version $Revision: 5.10 $ with 67 threads'
p1266
sbag1
(g110
g3
NtRp1267
(dp1268
g113
g1
(g114
g3
NtRp1269
(dp1270
g117
(lp1271
g94
asg121
(dp1272
g94
g408
ssg126
(dp1273
g94
S'68'
p1274
ssg131
(lp1275
g94
asbsg133
(dp1276
g412
(dp1277
g137
g414
sg139
I01
sg140
S'462.2221'
p1278
sssg142
S'STREAM version $Revision: 5.10 $ with 68 threads'
p1279
sbag1
(g110
g3
NtRp1280
(dp1281
g113
g1
(g114
g3
NtRp1282
(dp1283
g117
(lp1284
g94
asg121
(dp1285
g94
g408
ssg126
(dp1286
g94
S'69'
p1287
ssg131
(lp1288
g94
asbsg133
(dp1289
g412
(dp1290
g137
g414
sg139
I01
sg140
S'460.5698'
p1291
sssg142
S'STREAM version $Revision: 5.10 $ with 69 threads'
p1292
sbag1
(g110
g3
NtRp1293
(dp1294
g113
g1
(g114
g3
NtRp1295
(dp1296
g117
(lp1297
g94
asg121
(dp1298
g94
g408
ssg126
(dp1299
g94
S'70'
p1300
ssg131
(lp1301
g94
asbsg133
(dp1302
g412
(dp1303
g137
g414
sg139
I01
sg140
S'461.7913'
p1304
sssg142
S'STREAM version $Revision: 5.10 $ with 70 threads'
p1305
sbag1
(g110
g3
NtRp1306
(dp1307
g113
g1
(g114
g3
NtRp1308
(dp1309
g117
(lp1310
g94
asg121
(dp1311
g94
g408
ssg126
(dp1312
g94
S'71'
p1313
ssg131
(lp1314
g94
asbsg133
(dp1315
g412
(dp1316
g137
g414
sg139
I01
sg140
S'460.9653'
p1317
sssg142
S'STREAM version $Revision: 5.10 $ with 71 threads'
p1318
sbag1
(g110
g3
NtRp1319
(dp1320
g113
g1
(g114
g3
NtRp1321
(dp1322
g117
(lp1323
g94
asg121
(dp1324
g94
g408
ssg126
(dp1325
g94
S'72'
p1326
ssg131
(lp1327
g94
asbsg133
(dp1328
g412
(dp1329
g137
g414
sg139
I01
sg140
S'461.1303'
p1330
sssg142
S'STREAM version $Revision: 5.10 $ with 72 threads'
p1331
sbassg95
(dp1332
S'local__mcdram_7290_redhat-7.3_micperf-1.6.0_local_scaling'
p1333
(lp1334
g1
(g110
g3
NtRp1335
(dp1336
g113
g1
(g114
g3
NtRp1337
(dp1338
g117
(lp1339
g94
aS'iters'
p1340
aS'inpWidth'
p1341
aS'inpHeight'
p1342
aS'nImg'
p1343
aS'nIfm'
p1344
aS'nOfm'
p1345
aS'kw'
p1346
aS'kh'
p1347
aS'pad'
p1348
aS'stride'
p1349
asg121
(dp1350
g1344
S'3'
sg94
S'72'
p1351
sg1347
S'7'
sg1343
S'16'
p1352
sg1349
S'2'
sg1345
S'64'
p1353
sg1340
S'100'
p1354
sg1341
S'224'
p1355
sg1342
S'224'
p1356
sg1346
S'7'
sg1348
S'3'
ssg126
(dp1357
g1344
S'3'
sg1349
S'2'
sg94
g1351
sg1347
S'7'
sg1343
S'16'
p1358
sg1340
S'100'
p1359
sg1345
S'64'
p1360
sg1346
S'7'
sg1341
S'224'
p1361
sg1342
S'224'
p1362
sg1348
S'3'
ssg131
(lp1363
g94
asbsg133
(dp1364
S'Computation.Avg.NHWC/custom-Storage.FWD'
p1365
(dp1366
g137
g138
sg139
I01
sg140
F2532.9000000000001
ssS'Computation.Avg.NHWC/custom-Storage.UPD'
p1367
(dp1368
g137
g138
sg139
I01
sg140
F1017.4
ssS'Computation.Avg.custom-Storage.FWD'
p1369
(dp1370
g137
g138
sg139
I01
sg140
F2877.4000000000001
ssS'Computation.Avg.custom-Storage.UPD'
p1371
(dp1372
g137
g138
sg139
I01
sg140
F905.87
ssS'Computation.Avg.NHWC/RSCK-Storage.UPD'
p1373
(dp1374
g137
g138
sg139
I01
sg140
F1021.5
ssS'Computation.Avg.NHWC/RSCK-Storage.FWD'
p1375
(dp1376
g137
g138
sg139
I01
sg140
F2454.5
sssg142
S'W=224 H=224 C=3 N=16 K=64 R=7 S=7'
p1377
sbassg96
(dp1378
S'local__mcdram_7290_redhat-7.3_micperf-1.6.0_local_scaling'
p1379
(lp1380
g1
(g110
g3
NtRp1381
(dp1382
g113
g1
(g114
g3
NtRp1383
(dp1384
g117
(lp1385
S'i_num_rep'
p1386
ag97
aS'n_num_thread'
p1387
aS'm_mode'
p1388
aS'N_size'
p1389
aS'M_size'
p1390
asg121
(dp1391
g1389
S'7680'
p1392
sg1386
S'3'
sg97
S'7680'
p1393
sg1387
S'0'
sg1388
S'NN'
p1394
sg1390
S'7680'
p1395
ssg126
(dp1396
g1386
S'3'
sg97
S'512'
p1397
sg1387
S'0'
sg1388
g1394
sg1389
S'512'
p1398
sg1390
S'512'
p1399
ssg131
(lp1400
sbsg133
(dp1401
S'Task.Computation.Avg'
p1402
(dp1403
g137
g138
sg139
I01
sg140
S'908.33'
p1404
sssg142
S'(M=512, N=512, K=512) MKL DGEMM with 72 (autodetected) threads and 3 iterations'
p1405
sbag1
(g110
g3
NtRp1406
(dp1407
g113
g1
(g114
g3
NtRp1408
(dp1409
g117
(lp1410
g1386
ag97
ag1387
ag1388
ag1389
ag1390
asg121
(dp1411
g1389
g1392
sg1386
S'3'
sg97
g1393
sg1387
S'0'
sg1388
g1394
sg1390
g1395
ssg126
(dp1412
g1386
S'3'
sg97
S'1024'
p1413
sg1387
S'0'
sg1388
g1394
sg1389
S'1024'
p1414
sg1390
S'1024'
p1415
ssg131
(lp1416
sbsg133
(dp1417
g1402
(dp1418
g137
g138
sg139
I01
sg140
S'883.92'
p1419
sssg142
S'(M=1024, N=1024, K=1024) MKL DGEMM with 72 (autodetected) threads and 3 iterations'
p1420
sbag1
(g110
g3
NtRp1421
(dp1422
g113
g1
(g114
g3
NtRp1423
(dp1424
g117
(lp1425
g1386
ag97
ag1387
ag1388
ag1389
ag1390
asg121
(dp1426
g1389
g1392
sg1386
S'3'
sg97
g1393
sg1387
S'0'
sg1388
g1394
sg1390
g1395
ssg126
(dp1427
g1386
S'3'
sg97
S'1536'
p1428
sg1387
S'0'
sg1388
g1394
sg1389
S'1536'
p1429
sg1390
S'1536'
p1430
ssg131
(lp1431
sbsg133
(dp1432
g1402
(dp1433
g137
g138
sg139
I01
sg140
S'1092.59'
p1434
sssg142
S'(M=1536, N=1536, K=1536) MKL DGEMM with 72 (autodetected) threads and 3 iterations'
p1435
sbag1
(g110
g3
NtRp1436
(dp1437
g113
g1
(g114
g3
NtRp1438
(dp1439
g117
(lp1440
g1386
ag97
ag1387
ag1388
ag1389
ag1390
asg121
(dp1441
g1389
g1392
sg1386
S'3'
sg97
g1393
sg1387
S'0'
sg1388
g1394
sg1390
g1395
ssg126
(dp1442
g1386
S'3'
sg97
S'2048'
p1443
sg1387
S'0'
sg1388
g1394
sg1389
S'2048'
p1444
sg1390
S'2048'
p1445
ssg131
(lp1446
sbsg133
(dp1447
g1402
(dp1448
g137
g138
sg139
I01
sg140
S'1092.25'
p1449
sssg142
S'(M=2048, N=2048, K=2048) MKL DGEMM with 72 (autodetected) threads and 3 iterations'
p1450
sbag1
(g110
g3
NtRp1451
(dp1452
g113
g1
(g114
g3
NtRp1453
(dp1454
g117
(lp1455
g1386
ag97
ag1387
ag1388
ag1389
ag1390
asg121
(dp1456
g1389
g1392
sg1386
S'3'
sg97
g1393
sg1387
S'0'
sg1388
g1394
sg1390
g1395
ssg126
(dp1457
g1386
S'3'
sg97
S'2560'
p1458
sg1387
S'0'
sg1388
g1394
sg1389
S'2560'
p1459
sg1390
S'2560'
p1460
ssg131
(lp1461
sbsg133
(dp1462
g1402
(dp1463
g137
g138
sg139
I01
sg140
S'1767.41'
p1464
sssg142
S'(M=2560, N=2560, K=2560) MKL DGEMM with 72 (autodetected) threads and 3 iterations'
p1465
sbag1
(g110
g3
NtRp1466
(dp1467
g113
g1
(g114
g3
NtRp1468
(dp1469
g117
(lp1470
g1386
ag97
ag1387
ag1388
ag1389
ag1390
asg121
(dp1471
g1389
g1392
sg1386
S'3'
sg97
g1393
sg1387
S'0'
sg1388
g1394
sg1390
g1395
ssg126
(dp1472
g1386
S'3'
sg97
S'3072'
p1473
sg1387
S'0'
sg1388
g1394
sg1389
S'3072'
p1474
sg1390
S'3072'
p1475
ssg131
(lp1476
sbsg133
(dp1477
g1402
(dp1478
g137
g138
sg139
I01
sg140
S'1849.49'
p1479
sssg142
S'(M=3072, N=3072, K=3072) MKL DGEMM with 72 (autodetected) threads and 3 iterations'
p1480
sbag1
(g110
g3
NtRp1481
(dp1482
g113
g1
(g114
g3
NtRp1483
(dp1484
g117
(lp1485
g1386
ag97
ag1387
ag1388
ag1389
ag1390
asg121
(dp1486
g1389
g1392
sg1386
S'3'
sg97
g1393
sg1387
S'0'
sg1388
g1394
sg1390
g1395
ssg126
(dp1487
g1386
S'3'
sg97
S'3584'
p1488
sg1387
S'0'
sg1388
g1394
sg1389
S'3584'
p1489
sg1390
S'3584'
p1490
ssg131
(lp1491
sbsg133
(dp1492
g1402
(dp1493
g137
g138
sg139
I01
sg140
S'1894.88'
p1494
sssg142
S'(M=3584, N=3584, K=3584) MKL DGEMM with 72 (autodetected) threads and 3 iterations'
p1495
sbag1
(g110
g3
NtRp1496
(dp1497
g113
g1
(g114
g3
NtRp1498
(dp1499
g117
(lp1500
g1386
ag97
ag1387
ag1388
ag1389
ag1390
asg121
(dp1501
g1389
g1392
sg1386
S'3'
sg97
g1393
sg1387
S'0'
sg1388
g1394
sg1390
g1395
ssg126
(dp1502
g1386
S'3'
sg97
S'4096'
p1503
sg1387
S'0'
sg1388
g1394
sg1389
S'4096'
p1504
sg1390
S'4096'
p1505
ssg131
(lp1506
sbsg133
(dp1507
g1402
(dp1508
g137
g138
sg139
I01
sg140
S'1901.18'
p1509
sssg142
S'(M=4096, N=4096, K=4096) MKL DGEMM with 72 (autodetected) threads and 3 iterations'
p1510
sbag1
(g110
g3
NtRp1511
(dp1512
g113
g1
(g114
g3
NtRp1513
(dp1514
g117
(lp1515
g1386
ag97
ag1387
ag1388
ag1389
ag1390
asg121
(dp1516
g1389
g1392
sg1386
S'3'
sg97
g1393
sg1387
S'0'
sg1388
g1394
sg1390
g1395
ssg126
(dp1517
g1386
S'3'
sg97
S'4608'
p1518
sg1387
S'0'
sg1388
g1394
sg1389
S'4608'
p1519
sg1390
S'4608'
p1520
ssg131
(lp1521
sbsg133
(dp1522
g1402
(dp1523
g137
g138
sg139
I01
sg140
S'2131.94'
p1524
sssg142
S'(M=4608, N=4608, K=4608) MKL DGEMM with 72 (autodetected) threads and 3 iterations'
p1525
sbag1
(g110
g3
NtRp1526
(dp1527
g113
g1
(g114
g3
NtRp1528
(dp1529
g117
(lp1530
g1386
ag97
ag1387
ag1388
ag1389
ag1390
asg121
(dp1531
g1389
g1392
sg1386
S'3'
sg97
g1393
sg1387
S'0'
sg1388
g1394
sg1390
g1395
ssg126
(dp1532
g1386
S'3'
sg97
S'5120'
p1533
sg1387
S'0'
sg1388
g1394
sg1389
S'5120'
p1534
sg1390
S'5120'
p1535
ssg131
(lp1536
sbsg133
(dp1537
g1402
(dp1538
g137
g138
sg139
I01
sg140
S'2170.77'
p1539
sssg142
S'(M=5120, N=5120, K=5120) MKL DGEMM with 72 (autodetected) threads and 3 iterations'
p1540
sbag1
(g110
g3
NtRp1541
(dp1542
g113
g1
(g114
g3
NtRp1543
(dp1544
g117
(lp1545
g1386
ag97
ag1387
ag1388
ag1389
ag1390
asg121
(dp1546
g1389
g1392
sg1386
S'3'
sg97
g1393
sg1387
S'0'
sg1388
g1394
sg1390
g1395
ssg126
(dp1547
g1386
S'3'
sg97
S'5632'
p1548
sg1387
S'0'
sg1388
g1394
sg1389
S'5632'
p1549
sg1390
S'5632'
p1550
ssg131
(lp1551
sbsg133
(dp1552
g1402
(dp1553
g137
g138
sg139
I01
sg140
S'2237.23'
p1554
sssg142
S'(M=5632, N=5632, K=5632) MKL DGEMM with 72 (autodetected) threads and 3 iterations'
p1555
sbag1
(g110
g3
NtRp1556
(dp1557
g113
g1
(g114
g3
NtRp1558
(dp1559
g117
(lp1560
g1386
ag97
ag1387
ag1388
ag1389
ag1390
asg121
(dp1561
g1389
g1392
sg1386
S'3'
sg97
g1393
sg1387
S'0'
sg1388
g1394
sg1390
g1395
ssg126
(dp1562
g1386
S'3'
sg97
S'6144'
p1563
sg1387
S'0'
sg1388
g1394
sg1389
S'6144'
p1564
sg1390
S'6144'
p1565
ssg131
(lp1566
sbsg133
(dp1567
g1402
(dp1568
g137
g138
sg139
I01
sg140
S'2236.24'
p1569
sssg142
S'(M=6144, N=6144, K=6144) MKL DGEMM with 72 (autodetected) threads and 3 iterations'
p1570
sbag1
(g110
g3
NtRp1571
(dp1572
g113
g1
(g114
g3
NtRp1573
(dp1574
g117
(lp1575
g1386
ag97
ag1387
ag1388
ag1389
ag1390
asg121
(dp1576
g1389
g1392
sg1386
S'3'
sg97
g1393
sg1387
S'0'
sg1388
g1394
sg1390
g1395
ssg126
(dp1577
g1386
S'3'
sg97
S'6656'
p1578
sg1387
S'0'
sg1388
g1394
sg1389
S'6656'
p1579
sg1390
S'6656'
p1580
ssg131
(lp1581
sbsg133
(dp1582
g1402
(dp1583
g137
g138
sg139
I01
sg140
S'2242.09'
p1584
sssg142
S'(M=6656, N=6656, K=6656) MKL DGEMM with 72 (autodetected) threads and 3 iterations'
p1585
sbag1
(g110
g3
NtRp1586
(dp1587
g113
g1
(g114
g3
NtRp1588
(dp1589
g117
(lp1590
g1386
ag97
ag1387
ag1388
ag1389
ag1390
asg121
(dp1591
g1389
g1392
sg1386
S'3'
sg97
g1393
sg1387
S'0'
sg1388
g1394
sg1390
g1395
ssg126
(dp1592
g1386
S'3'
sg97
S'7168'
p1593
sg1387
S'0'
sg1388
g1394
sg1389
S'7168'
p1594
sg1390
S'7168'
p1595
ssg131
(lp1596
sbsg133
(dp1597
g1402
(dp1598
g137
g138
sg139
I01
sg140
S'2278.55'
p1599
sssg142
S'(M=7168, N=7168, K=7168) MKL DGEMM with 72 (autodetected) threads and 3 iterations'
p1600
sbag1
(g110
g3
NtRp1601
(dp1602
g113
g1
(g114
g3
NtRp1603
(dp1604
g117
(lp1605
g1386
ag97
ag1387
ag1388
ag1389
ag1390
asg121
(dp1606
g1389
g1392
sg1386
S'3'
sg97
g1393
sg1387
S'0'
sg1388
g1394
sg1390
g1395
ssg126
(dp1607
g1386
S'3'
sg97
S'7680'
p1608
sg1387
S'0'
sg1388
g1394
sg1389
S'7680'
p1609
sg1390
S'7680'
p1610
ssg131
(lp1611
sbsg133
(dp1612
g1402
(dp1613
g137
g138
sg139
I01
sg140
S'2278.96'
p1614
sssg142
S'(M=7680, N=7680, K=7680) MKL DGEMM with 72 (autodetected) threads and 3 iterations'
p1615
sbag1
(g110
g3
NtRp1616
(dp1617
g113
g1
(g114
g3
NtRp1618
(dp1619
g117
(lp1620
g1386
ag97
ag1387
ag1388
ag1389
ag1390
asg121
(dp1621
g1389
g1392
sg1386
S'3'
sg97
g1393
sg1387
S'0'
sg1388
g1394
sg1390
g1395
ssg126
(dp1622
g1386
S'3'
sg97
S'8192'
p1623
sg1387
S'0'
sg1388
g1394
sg1389
S'8192'
p1624
sg1390
S'8192'
p1625
ssg131
(lp1626
sbsg133
(dp1627
g1402
(dp1628
g137
g138
sg139
I01
sg140
S'2199.29'
p1629
sssg142
S'(M=8192, N=8192, K=8192) MKL DGEMM with 72 (autodetected) threads and 3 iterations'
p1630
sbag1
(g110
g3
NtRp1631
(dp1632
g113
g1
(g114
g3
NtRp1633
(dp1634
g117
(lp1635
g1386
ag97
ag1387
ag1388
ag1389
ag1390
asg121
(dp1636
g1389
g1392
sg1386
S'3'
sg97
g1393
sg1387
S'0'
sg1388
g1394
sg1390
g1395
ssg126
(dp1637
g1386
S'3'
sg97
S'8704'
p1638
sg1387
S'0'
sg1388
g1394
sg1389
S'8704'
p1639
sg1390
S'8704'
p1640
ssg131
(lp1641
sbsg133
(dp1642
g1402
(dp1643
g137
g138
sg139
I01
sg140
S'2248.16'
p1644
sssg142
S'(M=8704, N=8704, K=8704) MKL DGEMM with 72 (autodetected) threads and 3 iterations'
p1645
sbag1
(g110
g3
NtRp1646
(dp1647
g113
g1
(g114
g3
NtRp1648
(dp1649
g117
(lp1650
g1386
ag97
ag1387
ag1388
ag1389
ag1390
asg121
(dp1651
g1389
g1392
sg1386
S'3'
sg97
g1393
sg1387
S'0'
sg1388
g1394
sg1390
g1395
ssg126
(dp1652
g1386
S'3'
sg97
S'9216'
p1653
sg1387
S'0'
sg1388
g1394
sg1389
S'9216'
p1654
sg1390
S'9216'
p1655
ssg131
(lp1656
sbsg133
(dp1657
g1402
(dp1658
g137
g138
sg139
I01
sg140
S'2228.99'
p1659
sssg142
S'(M=9216, N=9216, K=9216) MKL DGEMM with 72 (autodetected) threads and 3 iterations'
p1660
sbag1
(g110
g3
NtRp1661
(dp1662
g113
g1
(g114
g3
NtRp1663
(dp1664
g117
(lp1665
g1386
ag97
ag1387
ag1388
ag1389
ag1390
asg121
(dp1666
g1389
g1392
sg1386
S'3'
sg97
g1393
sg1387
S'0'
sg1388
g1394
sg1390
g1395
ssg126
(dp1667
g1386
S'3'
sg97
S'9728'
p1668
sg1387
S'0'
sg1388
g1394
sg1389
S'9728'
p1669
sg1390
S'9728'
p1670
ssg131
(lp1671
sbsg133
(dp1672
g1402
(dp1673
g137
g138
sg139
I01
sg140
S'2257.28'
p1674
sssg142
S'(M=9728, N=9728, K=9728) MKL DGEMM with 72 (autodetected) threads and 3 iterations'
p1675
sbag1
(g110
g3
NtRp1676
(dp1677
g113
g1
(g114
g3
NtRp1678
(dp1679
g117
(lp1680
g1386
ag97
ag1387
ag1388
ag1389
ag1390
asg121
(dp1681
g1389
g1392
sg1386
S'3'
sg97
g1393
sg1387
S'0'
sg1388
g1394
sg1390
g1395
ssg126
(dp1682
g1386
S'3'
sg97
S'10240'
p1683
sg1387
S'0'
sg1388
g1394
sg1389
S'10240'
p1684
sg1390
S'10240'
p1685
ssg131
(lp1686
sbsg133
(dp1687
g1402
(dp1688
g137
g138
sg139
I01
sg140
S'2231.28'
p1689
sssg142
S'(M=10240, N=10240, K=10240) MKL DGEMM with 72 (autodetected) threads and 3 iterations'
p1690
sbassg98
(dp1691
S'local__mcdram_7290_redhat-7.3_micperf-1.6.0_local_scaling'
p1692
(lp1693
g1
(g110
g3
NtRp1694
(dp1695
g113
g1
(g114
g3
NtRp1696
(dp1697
g117
(lp1698
g99
aS'time'
p1699
ag94
asg121
(dp1700
g94
S'32'
p1701
sg1699
S'60'
p1702
sg99
S'128'
p1703
ssg126
(dp1704
g94
S'32'
p1705
sg1699
S'60'
p1706
sg99
S'32'
p1707
ssg131
(lp1708
sbsg133
(dp1709
S'Computation.Avg'
p1710
(dp1711
g137
g138
sg139
I01
sg140
S'15.3153'
p1712
sssg142
S'hpcg Local Dimensions nx=32, ny=32, nz=32, MPI ranks 4, threads per rank 32'
p1713
sbag1
(g110
g3
NtRp1714
(dp1715
g113
g1
(g114
g3
NtRp1716
(dp1717
g117
(lp1718
g99
ag1699
ag94
asg121
(dp1719
g94
g1701
sg1699
g1702
sg99
g1703
ssg126
(dp1720
g94
S'32'
p1721
sg1699
S'60'
p1722
sg99
S'64'
p1723
ssg131
(lp1724
sbsg133
(dp1725
g1710
(dp1726
g137
g138
sg139
I01
sg140
S'41.1965'
p1727
sssg142
S'hpcg Local Dimensions nx=64, ny=64, nz=64, MPI ranks 4, threads per rank 32'
p1728
sbag1
(g110
g3
NtRp1729
(dp1730
g113
g1
(g114
g3
NtRp1731
(dp1732
g117
(lp1733
g99
ag1699
ag94
asg121
(dp1734
g94
g1701
sg1699
g1702
sg99
g1703
ssg126
(dp1735
g94
S'32'
p1736
sg1699
S'60'
p1737
sg99
S'96'
p1738
ssg131
(lp1739
sbsg133
(dp1740
g1710
(dp1741
g137
g138
sg139
I01
sg140
S'54.6002'
p1742
sssg142
S'hpcg Local Dimensions nx=96, ny=96, nz=96, MPI ranks 4, threads per rank 32'
p1743
sbag1
(g110
g3
NtRp1744
(dp1745
g113
g1
(g114
g3
NtRp1746
(dp1747
g117
(lp1748
g99
ag1699
ag94
asg121
(dp1749
g94
g1701
sg1699
g1702
sg99
g1703
ssg126
(dp1750
g94
S'32'
p1751
sg1699
S'60'
p1752
sg99
S'128'
p1753
ssg131
(lp1754
sbsg133
(dp1755
g1710
(dp1756
g137
g138
sg139
I01
sg140
S'61.0644'
p1757
sssg142
S'hpcg Local Dimensions nx=128, ny=128, nz=128, MPI ranks 4, threads per rank 32'
p1758
sbassg100
(dp1759
S'local__mcdram_7290_redhat-7.3_micperf-1.6.0_local_scaling'
p1760
(lp1761
g1
(g110
g3
NtRp1762
(dp1763
g113
g1
(g114
g3
NtRp1764
(dp1765
g117
(lp1766
g99
aS'block_size'
p1767
aS'hpl_numthreads'
p1768
asg121
(dp1769
g1768
S'72'
p1770
sg1767
S'336'
p1771
sg99
S'100000'
p1772
ssg126
(dp1773
g1768
S'72'
p1774
sg1767
S'336'
p1775
sg99
S'10000'
p1776
ssg131
(lp1777
g1768
asbsg133
(dp1778
S'Computation.Avg'
p1779
(dp1780
g137
g138
sg139
I01
sg140
F783.87199999999996
sssg142
S'HPLinpack problem size 10000 block size 336'
p1781
sbag1
(g110
g3
NtRp1782
(dp1783
g113
g1
(g114
g3
NtRp1784
(dp1785
g117
(lp1786
g99
ag1767
ag1768
asg121
(dp1787
g1768
g1770
sg1767
g1771
sg99
g1772
ssg126
(dp1788
g1768
S'72'
p1789
sg1767
S'336'
p1790
sg99
S'20000'
p1791
ssg131
(lp1792
g1768
asbsg133
(dp1793
g1779
(dp1794
g137
g138
sg139
I01
sg140
F1668.2
sssg142
S'HPLinpack problem size 20000 block size 336'
p1795
sbag1
(g110
g3
NtRp1796
(dp1797
g113
g1
(g114
g3
NtRp1798
(dp1799
g117
(lp1800
g99
ag1767
ag1768
asg121
(dp1801
g1768
g1770
sg1767
g1771
sg99
g1772
ssg126
(dp1802
g1768
S'72'
p1803
sg1767
S'336'
p1804
sg99
S'30000'
p1805
ssg131
(lp1806
g1768
asbsg133
(dp1807
g1779
(dp1808
g137
g138
sg139
I01
sg140
F1892.77
sssg142
S'HPLinpack problem size 30000 block size 336'
p1809
sbag1
(g110
g3
NtRp1810
(dp1811
g113
g1
(g114
g3
NtRp1812
(dp1813
g117
(lp1814
g99
ag1767
ag1768
asg121
(dp1815
g1768
g1770
sg1767
g1771
sg99
g1772
ssg126
(dp1816
g1768
S'72'
p1817
sg1767
S'336'
p1818
sg99
S'40000'
p1819
ssg131
(lp1820
g1768
asbsg133
(dp1821
g1779
(dp1822
g137
g138
sg139
I01
sg140
F1973.8299999999999
sssg142
S'HPLinpack problem size 40000 block size 336'
p1823
sbag1
(g110
g3
NtRp1824
(dp1825
g113
g1
(g114
g3
NtRp1826
(dp1827
g117
(lp1828
g99
ag1767
ag1768
asg121
(dp1829
g1768
g1770
sg1767
g1771
sg99
g1772
ssg126
(dp1830
g1768
S'72'
p1831
sg1767
S'336'
p1832
sg99
S'50000'
p1833
ssg131
(lp1834
g1768
asbsg133
(dp1835
g1779
(dp1836
g137
g138
sg139
I01
sg140
F1944.9100000000001
sssg142
S'HPLinpack problem size 50000 block size 336'
p1837
sbag1
(g110
g3
NtRp1838
(dp1839
g113
g1
(g114
g3
NtRp1840
(dp1841
g117
(lp1842
g99
ag1767
ag1768
asg121
(dp1843
g1768
g1770
sg1767
g1771
sg99
g1772
ssg126
(dp1844
g1768
S'72'
p1845
sg1767
S'336'
p1846
sg99
S'60000'
p1847
ssg131
(lp1848
g1768
asbsg133
(dp1849
g1779
(dp1850
g137
g138
sg139
I01
sg140
F2005.9200000000001
sssg142
S'HPLinpack problem size 60000 block size 336'
p1851
sbag1
(g110
g3
NtRp1852
(dp1853
g113
g1
(g114
g3
NtRp1854
(dp1855
g117
(lp1856
g99
ag1767
ag1768
asg121
(dp1857
g1768
g1770
sg1767
g1771
sg99
g1772
ssg126
(dp1858
g1768
S'72'
p1859
sg1767
S'336'
p1860
sg99
S'70000'
p1861
ssg131
(lp1862
g1768
asbsg133
(dp1863
g1779
(dp1864
g137
g138
sg139
I01
sg140
F2026.5
sssg142
S'HPLinpack problem size 70000 block size 336'
p1865
sbag1
(g110
g3
NtRp1866
(dp1867
g113
g1
(g114
g3
NtRp1868
(dp1869
g117
(lp1870
g99
ag1767
ag1768
asg121
(dp1871
g1768
g1770
sg1767
g1771
sg99
g1772
ssg126
(dp1872
g1768
S'72'
p1873
sg1767
S'336'
p1874
sg99
S'80000'
p1875
ssg131
(lp1876
g1768
asbsg133
(dp1877
g1779
(dp1878
g137
g138
sg139
I01
sg140
F1998.9200000000001
sssg142
S'HPLinpack problem size 80000 block size 336'
p1879
sbag1
(g110
g3
NtRp1880
(dp1881
g113
g1
(g114
g3
NtRp1882
(dp1883
g117
(lp1884
g99
ag1767
ag1768
asg121
(dp1885
g1768
g1770
sg1767
g1771
sg99
g1772
ssg126
(dp1886
g1768
S'72'
p1887
sg1767
S'336'
p1888
sg99
S'90000'
p1889
ssg131
(lp1890
g1768
asbsg133
(dp1891
g1779
(dp1892
g137
g138
sg139
I01
sg140
F1990.27
sssg142
S'HPLinpack problem size 90000 block size 336'
p1893
sbag1
(g110
g3
NtRp1894
(dp1895
g113
g1
(g114
g3
NtRp1896
(dp1897
g117
(lp1898
g99
ag1767
ag1768
asg121
(dp1899
g1768
g1770
sg1767
g1771
sg99
g1772
ssg126
(dp1900
g1768
S'72'
p1901
sg1767
S'336'
p1902
sg99
S'100000'
p1903
ssg131
(lp1904
g1768
asbsg133
(dp1905
g1779
(dp1906
g137
g138
sg139
I01
sg140
F2001.96
sssg142
S'HPLinpack problem size 100000 block size 336'
p1907
sbassg101
(dp1908
S'local__mcdram_7290_redhat-7.3_micperf-1.6.0_local_scaling'
p1909
(lp1910
g1
(g110
g3
NtRp1911
(dp1912
g113
g1
(g114
g3
NtRp1913
(dp1914
g117
(lp1915
g1386
ag97
ag1387
ag1388
ag1389
ag1390
asg121
(dp1916
g1389
S'-1'
p1917
sg1386
S'3'
sg97
g1917
sg1387
S'228'
p1918
sg1388
g1394
sg1390
g1917
ssg126
(dp1919
g1386
S'3'
sg97
S'512'
p1920
sg1387
S'0'
sg1388
g1394
sg1389
S'512'
p1921
sg1390
S'512'
p1922
ssg131
(lp1923
sbsg133
(dp1924
g1402
(dp1925
g137
g138
sg139
I01
sg140
S'1770.21'
p1926
sssg142
S'(M=512, N=512, K=512) MKL SGEMM with 72 (autodetected) threads and 3 iterations'
p1927
sbag1
(g110
g3
NtRp1928
(dp1929
g113
g1
(g114
g3
NtRp1930
(dp1931
g117
(lp1932
g1386
ag97
ag1387
ag1388
ag1389
ag1390
asg121
(dp1933
g1389
g1917
sg1386
S'3'
sg97
g1917
sg1387
g1918
sg1388
g1394
sg1390
g1917
ssg126
(dp1934
g1386
S'3'
sg97
S'1024'
p1935
sg1387
S'0'
sg1388
g1394
sg1389
S'1024'
p1936
sg1390
S'1024'
p1937
ssg131
(lp1938
sbsg133
(dp1939
g1402
(dp1940
g137
g138
sg139
I01
sg140
S'1780.56'
p1941
sssg142
S'(M=1024, N=1024, K=1024) MKL SGEMM with 72 (autodetected) threads and 3 iterations'
p1942
sbag1
(g110
g3
NtRp1943
(dp1944
g113
g1
(g114
g3
NtRp1945
(dp1946
g117
(lp1947
g1386
ag97
ag1387
ag1388
ag1389
ag1390
asg121
(dp1948
g1389
g1917
sg1386
S'3'
sg97
g1917
sg1387
g1918
sg1388
g1394
sg1390
g1917
ssg126
(dp1949
g1386
S'3'
sg97
S'1536'
p1950
sg1387
S'0'
sg1388
g1394
sg1389
S'1536'
p1951
sg1390
S'1536'
p1952
ssg131
(lp1953
sbsg133
(dp1954
g1402
(dp1955
g137
g138
sg139
I01
sg140
S'2326.14'
p1956
sssg142
S'(M=1536, N=1536, K=1536) MKL SGEMM with 72 (autodetected) threads and 3 iterations'
p1957
sbag1
(g110
g3
NtRp1958
(dp1959
g113
g1
(g114
g3
NtRp1960
(dp1961
g117
(lp1962
g1386
ag97
ag1387
ag1388
ag1389
ag1390
asg121
(dp1963
g1389
g1917
sg1386
S'3'
sg97
g1917
sg1387
g1918
sg1388
g1394
sg1390
g1917
ssg126
(dp1964
g1386
S'3'
sg97
S'2048'
p1965
sg1387
S'0'
sg1388
g1394
sg1389
S'2048'
p1966
sg1390
S'2048'
p1967
ssg131
(lp1968
sbsg133
(dp1969
g1402
(dp1970
g137
g138
sg139
I01
sg140
S'2526.64'
p1971
sssg142
S'(M=2048, N=2048, K=2048) MKL SGEMM with 72 (autodetected) threads and 3 iterations'
p1972
sbag1
(g110
g3
NtRp1973
(dp1974
g113
g1
(g114
g3
NtRp1975
(dp1976
g117
(lp1977
g1386
ag97
ag1387
ag1388
ag1389
ag1390
asg121
(dp1978
g1389
g1917
sg1386
S'3'
sg97
g1917
sg1387
g1918
sg1388
g1394
sg1390
g1917
ssg126
(dp1979
g1386
S'3'
sg97
S'2560'
p1980
sg1387
S'0'
sg1388
g1394
sg1389
S'2560'
p1981
sg1390
S'2560'
p1982
ssg131
(lp1983
sbsg133
(dp1984
g1402
(dp1985
g137
g138
sg139
I01
sg140
S'3056.51'
p1986
sssg142
S'(M=2560, N=2560, K=2560) MKL SGEMM with 72 (autodetected) threads and 3 iterations'
p1987
sbag1
(g110
g3
NtRp1988
(dp1989
g113
g1
(g114
g3
NtRp1990
(dp1991
g117
(lp1992
g1386
ag97
ag1387
ag1388
ag1389
ag1390
asg121
(dp1993
g1389
g1917
sg1386
S'3'
sg97
g1917
sg1387
g1918
sg1388
g1394
sg1390
g1917
ssg126
(dp1994
g1386
S'3'
sg97
S'3072'
p1995
sg1387
S'0'
sg1388
g1394
sg1389
S'3072'
p1996
sg1390
S'3072'
p1997
ssg131
(lp1998
sbsg133
(dp1999
g1402
(dp2000
g137
g138
sg139
I01
sg140
S'3262.92'
p2001
sssg142
S'(M=3072, N=3072, K=3072) MKL SGEMM with 72 (autodetected) threads and 3 iterations'
p2002
sbag1
(g110
g3
NtRp2003
(dp2004
g113
g1
(g114
g3
NtRp2005
(dp2006
g117
(lp2007
g1386
ag97
ag1387
ag1388
ag1389
ag1390
asg121
(dp2008
g1389
g1917
sg1386
S'3'
sg97
g1917
sg1387
g1918
sg1388
g1394
sg1390
g1917
ssg126
(dp2009
g1386
S'3'
sg97
S'3584'
p2010
sg1387
S'0'
sg1388
g1394
sg1389
S'3584'
p2011
sg1390
S'3584'
p2012
ssg131
(lp2013
sbsg133
(dp2014
g1402
(dp2015
g137
g138
sg139
I01
sg140
S'3064.61'
p2016
sssg142
S'(M=3584, N=3584, K=3584) MKL SGEMM with 72 (autodetected) threads and 3 iterations'
p2017
sbag1
(g110
g3
NtRp2018
(dp2019
g113
g1
(g114
g3
NtRp2020
(dp2021
g117
(lp2022
g1386
ag97
ag1387
ag1388
ag1389
ag1390
asg121
(dp2023
g1389
g1917
sg1386
S'3'
sg97
g1917
sg1387
g1918
sg1388
g1394
sg1390
g1917
ssg126
(dp2024
g1386
S'3'
sg97
S'4096'
p2025
sg1387
S'0'
sg1388
g1394
sg1389
S'4096'
p2026
sg1390
S'4096'
p2027
ssg131
(lp2028
sbsg133
(dp2029
g1402
(dp2030
g137
g138
sg139
I01
sg140
S'3405.29'
p2031
sssg142
S'(M=4096, N=4096, K=4096) MKL SGEMM with 72 (autodetected) threads and 3 iterations'
p2032
sbag1
(g110
g3
NtRp2033
(dp2034
g113
g1
(g114
g3
NtRp2035
(dp2036
g117
(lp2037
g1386
ag97
ag1387
ag1388
ag1389
ag1390
asg121
(dp2038
g1389
g1917
sg1386
S'3'
sg97
g1917
sg1387
g1918
sg1388
g1394
sg1390
g1917
ssg126
(dp2039
g1386
S'3'
sg97
S'4608'
p2040
sg1387
S'0'
sg1388
g1394
sg1389
S'4608'
p2041
sg1390
S'4608'
p2042
ssg131
(lp2043
sbsg133
(dp2044
g1402
(dp2045
g137
g138
sg139
I01
sg140
S'4213.47'
p2046
sssg142
S'(M=4608, N=4608, K=4608) MKL SGEMM with 72 (autodetected) threads and 3 iterations'
p2047
sbag1
(g110
g3
NtRp2048
(dp2049
g113
g1
(g114
g3
NtRp2050
(dp2051
g117
(lp2052
g1386
ag97
ag1387
ag1388
ag1389
ag1390
asg121
(dp2053
g1389
g1917
sg1386
S'3'
sg97
g1917
sg1387
g1918
sg1388
g1394
sg1390
g1917
ssg126
(dp2054
g1386
S'3'
sg97
S'5120'
p2055
sg1387
S'0'
sg1388
g1394
sg1389
S'5120'
p2056
sg1390
S'5120'
p2057
ssg131
(lp2058
sbsg133
(dp2059
g1402
(dp2060
g137
g138
sg139
I01
sg140
S'4375.79'
p2061
sssg142
S'(M=5120, N=5120, K=5120) MKL SGEMM with 72 (autodetected) threads and 3 iterations'
p2062
sbag1
(g110
g3
NtRp2063
(dp2064
g113
g1
(g114
g3
NtRp2065
(dp2066
g117
(lp2067
g1386
ag97
ag1387
ag1388
ag1389
ag1390
asg121
(dp2068
g1389
g1917
sg1386
S'3'
sg97
g1917
sg1387
g1918
sg1388
g1394
sg1390
g1917
ssg126
(dp2069
g1386
S'3'
sg97
S'5632'
p2070
sg1387
S'0'
sg1388
g1394
sg1389
S'5632'
p2071
sg1390
S'5632'
p2072
ssg131
(lp2073
sbsg133
(dp2074
g1402
(dp2075
g137
g138
sg139
I01
sg140
S'4460.95'
p2076
sssg142
S'(M=5632, N=5632, K=5632) MKL SGEMM with 72 (autodetected) threads and 3 iterations'
p2077
sbag1
(g110
g3
NtRp2078
(dp2079
g113
g1
(g114
g3
NtRp2080
(dp2081
g117
(lp2082
g1386
ag97
ag1387
ag1388
ag1389
ag1390
asg121
(dp2083
g1389
g1917
sg1386
S'3'
sg97
g1917
sg1387
g1918
sg1388
g1394
sg1390
g1917
ssg126
(dp2084
g1386
S'3'
sg97
S'6144'
p2085
sg1387
S'0'
sg1388
g1394
sg1389
S'6144'
p2086
sg1390
S'6144'
p2087
ssg131
(lp2088
sbsg133
(dp2089
g1402
(dp2090
g137
g138
sg139
I01
sg140
S'4473.41'
p2091
sssg142
S'(M=6144, N=6144, K=6144) MKL SGEMM with 72 (autodetected) threads and 3 iterations'
p2092
sbag1
(g110
g3
NtRp2093
(dp2094
g113
g1
(g114
g3
NtRp2095
(dp2096
g117
(lp2097
g1386
ag97
ag1387
ag1388
ag1389
ag1390
asg121
(dp2098
g1389
g1917
sg1386
S'3'
sg97
g1917
sg1387
g1918
sg1388
g1394
sg1390
g1917
ssg126
(dp2099
g1386
S'3'
sg97
S'6656'
p2100
sg1387
S'0'
sg1388
g1394
sg1389
S'6656'
p2101
sg1390
S'6656'
p2102
ssg131
(lp2103
sbsg133
(dp2104
g1402
(dp2105
g137
g138
sg139
I01
sg140
S'4534.36'
p2106
sssg142
S'(M=6656, N=6656, K=6656) MKL SGEMM with 72 (autodetected) threads and 3 iterations'
p2107
sbag1
(g110
g3
NtRp2108
(dp2109
g113
g1
(g114
g3
NtRp2110
(dp2111
g117
(lp2112
g1386
ag97
ag1387
ag1388
ag1389
ag1390
asg121
(dp2113
g1389
g1917
sg1386
S'3'
sg97
g1917
sg1387
g1918
sg1388
g1394
sg1390
g1917
ssg126
(dp2114
g1386
S'3'
sg97
S'7168'
p2115
sg1387
S'0'
sg1388
g1394
sg1389
S'7168'
p2116
sg1390
S'7168'
p2117
ssg131
(lp2118
sbsg133
(dp2119
g1402
(dp2120
g137
g138
sg139
I01
sg140
S'4606.74'
p2121
sssg142
S'(M=7168, N=7168, K=7168) MKL SGEMM with 72 (autodetected) threads and 3 iterations'
p2122
sbag1
(g110
g3
NtRp2123
(dp2124
g113
g1
(g114
g3
NtRp2125
(dp2126
g117
(lp2127
g1386
ag97
ag1387
ag1388
ag1389
ag1390
asg121
(dp2128
g1389
g1917
sg1386
S'3'
sg97
g1917
sg1387
g1918
sg1388
g1394
sg1390
g1917
ssg126
(dp2129
g1386
S'3'
sg97
S'7680'
p2130
sg1387
S'0'
sg1388
g1394
sg1389
S'7680'
p2131
sg1390
S'7680'
p2132
ssg131
(lp2133
sbsg133
(dp2134
g1402
(dp2135
g137
g138
sg139
I01
sg140
S'4617.44'
p2136
sssg142
S'(M=7680, N=7680, K=7680) MKL SGEMM with 72 (autodetected) threads and 3 iterations'
p2137
sbag1
(g110
g3
NtRp2138
(dp2139
g113
g1
(g114
g3
NtRp2140
(dp2141
g117
(lp2142
g1386
ag97
ag1387
ag1388
ag1389
ag1390
asg121
(dp2143
g1389
g1917
sg1386
S'3'
sg97
g1917
sg1387
g1918
sg1388
g1394
sg1390
g1917
ssg126
(dp2144
g1386
S'3'
sg97
S'8192'
p2145
sg1387
S'0'
sg1388
g1394
sg1389
S'8192'
p2146
sg1390
S'8192'
p2147
ssg131
(lp2148
sbsg133
(dp2149
g1402
(dp2150
g137
g138
sg139
I01
sg140
S'4592.79'
p2151
sssg142
S'(M=8192, N=8192, K=8192) MKL SGEMM with 72 (autodetected) threads and 3 iterations'
p2152
sbag1
(g110
g3
NtRp2153
(dp2154
g113
g1
(g114
g3
NtRp2155
(dp2156
g117
(lp2157
g1386
ag97
ag1387
ag1388
ag1389
ag1390
asg121
(dp2158
g1389
g1917
sg1386
S'3'
sg97
g1917
sg1387
g1918
sg1388
g1394
sg1390
g1917
ssg126
(dp2159
g1386
S'3'
sg97
S'8704'
p2160
sg1387
S'0'
sg1388
g1394
sg1389
S'8704'
p2161
sg1390
S'8704'
p2162
ssg131
(lp2163
sbsg133
(dp2164
g1402
(dp2165
g137
g138
sg139
I01
sg140
S'4683.09'
p2166
sssg142
S'(M=8704, N=8704, K=8704) MKL SGEMM with 72 (autodetected) threads and 3 iterations'
p2167
sbag1
(g110
g3
NtRp2168
(dp2169
g113
g1
(g114
g3
NtRp2170
(dp2171
g117
(lp2172
g1386
ag97
ag1387
ag1388
ag1389
ag1390
asg121
(dp2173
g1389
g1917
sg1386
S'3'
sg97
g1917
sg1387
g1918
sg1388
g1394
sg1390
g1917
ssg126
(dp2174
g1386
S'3'
sg97
S'9216'
p2175
sg1387
S'0'
sg1388
g1394
sg1389
S'9216'
p2176
sg1390
S'9216'
p2177
ssg131
(lp2178
sbsg133
(dp2179
g1402
(dp2180
g137
g138
sg139
I01
sg140
S'4724.95'
p2181
sssg142
S'(M=9216, N=9216, K=9216) MKL SGEMM with 72 (autodetected) threads and 3 iterations'
p2182
sbag1
(g110
g3
NtRp2183
(dp2184
g113
g1
(g114
g3
NtRp2185
(dp2186
g117
(lp2187
g1386
ag97
ag1387
ag1388
ag1389
ag1390
asg121
(dp2188
g1389
g1917
sg1386
S'3'
sg97
g1917
sg1387
g1918
sg1388
g1394
sg1390
g1917
ssg126
(dp2189
g1386
S'3'
sg97
S'9728'
p2190
sg1387
S'0'
sg1388
g1394
sg1389
S'9728'
p2191
sg1390
S'9728'
p2192
ssg131
(lp2193
sbsg133
(dp2194
g1402
(dp2195
g137
g138
sg139
I01
sg140
S'4717.82'
p2196
sssg142
S'(M=9728, N=9728, K=9728) MKL SGEMM with 72 (autodetected) threads and 3 iterations'
p2197
sbag1
(g110
g3
NtRp2198
(dp2199
g113
g1
(g114
g3
NtRp2200
(dp2201
g117
(lp2202
g1386
ag97
ag1387
ag1388
ag1389
ag1390
asg121
(dp2203
g1389
g1917
sg1386
S'3'
sg97
g1917
sg1387
g1918
sg1388
g1394
sg1390
g1917
ssg126
(dp2204
g1386
S'3'
sg97
S'10240'
p2205
sg1387
S'0'
sg1388
g1394
sg1389
S'10240'
p2206
sg1390
S'10240'
p2207
ssg131
(lp2208
sbsg133
(dp2209
g1402
(dp2210
g137
g138
sg139
I01
sg140
S'4734.63'
p2211
sssg142
S'(M=10240, N=10240, K=10240) MKL SGEMM with 72 (autodetected) threads and 3 iterations'
p2212
sbag1
(g110
g3
NtRp2213
(dp2214
g113
g1
(g114
g3
NtRp2215
(dp2216
g117
(lp2217
g1386
ag97
ag1387
ag1388
ag1389
ag1390
asg121
(dp2218
g1389
g1917
sg1386
S'3'
sg97
g1917
sg1387
g1918
sg1388
g1394
sg1390
g1917
ssg126
(dp2219
g1386
S'3'
sg97
S'10752'
p2220
sg1387
S'0'
sg1388
g1394
sg1389
S'10752'
p2221
sg1390
S'10752'
p2222
ssg131
(lp2223
sbsg133
(dp2224
g1402
(dp2225
g137
g138
sg139
I01
sg140
S'4783.61'
p2226
sssg142
S'(M=10752, N=10752, K=10752) MKL SGEMM with 72 (autodetected) threads and 3 iterations'
p2227
sbag1
(g110
g3
NtRp2228
(dp2229
g113
g1
(g114
g3
NtRp2230
(dp2231
g117
(lp2232
g1386
ag97
ag1387
ag1388
ag1389
ag1390
asg121
(dp2233
g1389
g1917
sg1386
S'3'
sg97
g1917
sg1387
g1918
sg1388
g1394
sg1390
g1917
ssg126
(dp2234
g1386
S'3'
sg97
S'11264'
p2235
sg1387
S'0'
sg1388
g1394
sg1389
S'11264'
p2236
sg1390
S'11264'
p2237
ssg131
(lp2238
sbsg133
(dp2239
g1402
(dp2240
g137
g138
sg139
I01
sg140
S'4831.57'
p2241
sssg142
S'(M=11264, N=11264, K=11264) MKL SGEMM with 72 (autodetected) threads and 3 iterations'
p2242
sbag1
(g110
g3
NtRp2243
(dp2244
g113
g1
(g114
g3
NtRp2245
(dp2246
g117
(lp2247
g1386
ag97
ag1387
ag1388
ag1389
ag1390
asg121
(dp2248
g1389
g1917
sg1386
S'3'
sg97
g1917
sg1387
g1918
sg1388
g1394
sg1390
g1917
ssg126
(dp2249
g1386
S'3'
sg97
S'11776'
p2250
sg1387
S'0'
sg1388
g1394
sg1389
S'11776'
p2251
sg1390
S'11776'
p2252
ssg131
(lp2253
sbsg133
(dp2254
g1402
(dp2255
g137
g138
sg139
I01
sg140
S'3853.1'
p2256
sssg142
S'(M=11776, N=11776, K=11776) MKL SGEMM with 72 (autodetected) threads and 3 iterations'
p2257
sbag1
(g110
g3
NtRp2258
(dp2259
g113
g1
(g114
g3
NtRp2260
(dp2261
g117
(lp2262
g1386
ag97
ag1387
ag1388
ag1389
ag1390
asg121
(dp2263
g1389
g1917
sg1386
S'3'
sg97
g1917
sg1387
g1918
sg1388
g1394
sg1390
g1917
ssg126
(dp2264
g1386
S'3'
sg97
S'12288'
p2265
sg1387
S'0'
sg1388
g1394
sg1389
S'12288'
p2266
sg1390
S'12288'
p2267
ssg131
(lp2268
sbsg133
(dp2269
g1402
(dp2270
g137
g138
sg139
I01
sg140
S'4828.16'
p2271
sssg142
S'(M=12288, N=12288, K=12288) MKL SGEMM with 72 (autodetected) threads and 3 iterations'
p2272
sbag1
(g110
g3
NtRp2273
(dp2274
g113
g1
(g114
g3
NtRp2275
(dp2276
g117
(lp2277
g1386
ag97
ag1387
ag1388
ag1389
ag1390
asg121
(dp2278
g1389
g1917
sg1386
S'3'
sg97
g1917
sg1387
g1918
sg1388
g1394
sg1390
g1917
ssg126
(dp2279
g1386
S'3'
sg97
S'12800'
p2280
sg1387
S'0'
sg1388
g1394
sg1389
S'12800'
p2281
sg1390
S'12800'
p2282
ssg131
(lp2283
sbsg133
(dp2284
g1402
(dp2285
g137
g138
sg139
I01
sg140
S'4849.29'
p2286
sssg142
S'(M=12800, N=12800, K=12800) MKL SGEMM with 72 (autodetected) threads and 3 iterations'
p2287
sbag1
(g110
g3
NtRp2288
(dp2289
g113
g1
(g114
g3
NtRp2290
(dp2291
g117
(lp2292
g1386
ag97
ag1387
ag1388
ag1389
ag1390
asg121
(dp2293
g1389
g1917
sg1386
S'3'
sg97
g1917
sg1387
g1918
sg1388
g1394
sg1390
g1917
ssg126
(dp2294
g1386
S'3'
sg97
S'13312'
p2295
sg1387
S'0'
sg1388
g1394
sg1389
S'13312'
p2296
sg1390
S'13312'
p2297
ssg131
(lp2298
sbsg133
(dp2299
g1402
(dp2300
g137
g138
sg139
I01
sg140
S'4826.28'
p2301
sssg142
S'(M=13312, N=13312, K=13312) MKL SGEMM with 72 (autodetected) threads and 3 iterations'
p2302
sbag1
(g110
g3
NtRp2303
(dp2304
g113
g1
(g114
g3
NtRp2305
(dp2306
g117
(lp2307
g1386
ag97
ag1387
ag1388
ag1389
ag1390
asg121
(dp2308
g1389
g1917
sg1386
S'3'
sg97
g1917
sg1387
g1918
sg1388
g1394
sg1390
g1917
ssg126
(dp2309
g1386
S'3'
sg97
S'13824'
p2310
sg1387
S'0'
sg1388
g1394
sg1389
S'13824'
p2311
sg1390
S'13824'
p2312
ssg131
(lp2313
sbsg133
(dp2314
g1402
(dp2315
g137
g138
sg139
I01
sg140
S'4834.57'
p2316
sssg142
S'(M=13824, N=13824, K=13824) MKL SGEMM with 72 (autodetected) threads and 3 iterations'
p2317
sbag1
(g110
g3
NtRp2318
(dp2319
g113
g1
(g114
g3
NtRp2320
(dp2321
g117
(lp2322
g1386
ag97
ag1387
ag1388
ag1389
ag1390
asg121
(dp2323
g1389
g1917
sg1386
S'3'
sg97
g1917
sg1387
g1918
sg1388
g1394
sg1390
g1917
ssg126
(dp2324
g1386
S'3'
sg97
S'14336'
p2325
sg1387
S'0'
sg1388
g1394
sg1389
S'14336'
p2326
sg1390
S'14336'
p2327
ssg131
(lp2328
sbsg133
(dp2329
g1402
(dp2330
g137
g138
sg139
I01
sg140
S'4813.9'
p2331
sssg142
S'(M=14336, N=14336, K=14336) MKL SGEMM with 72 (autodetected) threads and 3 iterations'
p2332
sbag1
(g110
g3
NtRp2333
(dp2334
g113
g1
(g114
g3
NtRp2335
(dp2336
g117
(lp2337
g1386
ag97
ag1387
ag1388
ag1389
ag1390
asg121
(dp2338
g1389
g1917
sg1386
S'3'
sg97
g1917
sg1387
g1918
sg1388
g1394
sg1390
g1917
ssg126
(dp2339
g1386
S'3'
sg97
S'14848'
p2340
sg1387
S'0'
sg1388
g1394
sg1389
S'14848'
p2341
sg1390
S'14848'
p2342
ssg131
(lp2343
sbsg133
(dp2344
g1402
(dp2345
g137
g138
sg139
I01
sg140
S'4799.0'
p2346
sssg142
S'(M=14848, N=14848, K=14848) MKL SGEMM with 72 (autodetected) threads and 3 iterations'
p2347
sbag1
(g110
g3
NtRp2348
(dp2349
g113
g1
(g114
g3
NtRp2350
(dp2351
g117
(lp2352
g1386
ag97
ag1387
ag1388
ag1389
ag1390
asg121
(dp2353
g1389
g1917
sg1386
S'3'
sg97
g1917
sg1387
g1918
sg1388
g1394
sg1390
g1917
ssg126
(dp2354
g1386
S'3'
sg97
S'15360'
p2355
sg1387
S'0'
sg1388
g1394
sg1389
S'15360'
p2356
sg1390
S'15360'
p2357
ssg131
(lp2358
sbsg133
(dp2359
g1402
(dp2360
g137
g138
sg139
I01
sg140
S'4780.07'
p2361
sssg142
S'(M=15360, N=15360, K=15360) MKL SGEMM with 72 (autodetected) threads and 3 iterations'
p2362
sbag1
(g110
g3
NtRp2363
(dp2364
g113
g1
(g114
g3
NtRp2365
(dp2366
g117
(lp2367
g1386
ag97
ag1387
ag1388
ag1389
ag1390
asg121
(dp2368
g1389
g1917
sg1386
S'3'
sg97
g1917
sg1387
g1918
sg1388
g1394
sg1390
g1917
ssg126
(dp2369
g1386
S'3'
sg97
S'15872'
p2370
sg1387
S'0'
sg1388
g1394
sg1389
S'15872'
p2371
sg1390
S'15872'
p2372
ssg131
(lp2373
sbsg133
(dp2374
g1402
(dp2375
g137
g138
sg139
I01
sg140
S'4794.49'
p2376
sssg142
S'(M=15872, N=15872, K=15872) MKL SGEMM with 72 (autodetected) threads and 3 iterations'
p2377
sbag1
(g110
g3
NtRp2378
(dp2379
g113
g1
(g114
g3
NtRp2380
(dp2381
g117
(lp2382
g1386
ag97
ag1387
ag1388
ag1389
ag1390
asg121
(dp2383
g1389
g1917
sg1386
S'3'
sg97
g1917
sg1387
g1918
sg1388
g1394
sg1390
g1917
ssg126
(dp2384
g1386
S'3'
sg97
S'16384'
p2385
sg1387
S'0'
sg1388
g1394
sg1389
S'16384'
p2386
sg1390
S'16384'
p2387
ssg131
(lp2388
sbsg133
(dp2389
g1402
(dp2390
g137
g138
sg139
I01
sg140
S'4683.76'
p2391
sssg142
S'(M=16384, N=16384, K=16384) MKL SGEMM with 72 (autodetected) threads and 3 iterations'
p2392
sbassg102
(dp2393
S'local__mcdram_7290_redhat-7.3_micperf-1.6.0_local_scaling'
p2394
(lp2395
g1
(g110
g3
NtRp2396
(dp2397
g113
g1
(g114
g3
NtRp2398
(dp2399
g117
(lp2400
g103
aS'numjobs'
p2401
asg121
(dp2402
g103
S'16MB'
p2403
sg2401
S'10'
p2404
ssg126
(dp2405
g2401
S'10'
p2406
sg103
S'4MB'
p2407
ssg131
(lp2408
sbsg133
(dp2409
S'Computation.Avg'
p2410
(dp2411
g137
S'kB/s'
p2412
sg139
I01
sg140
I36571
sssg142
Vfio-2.2.8; Test of paralell read from multiple files; total size: 40960 kB
p2413
sbag1
(g110
g3
NtRp2414
(dp2415
g113
g1
(g114
g3
NtRp2416
(dp2417
g117
(lp2418
g103
ag2401
asg121
(dp2419
g103
g2403
sg2401
g2404
ssg126
(dp2420
g2401
S'10'
p2421
sg103
S'8MB'
p2422
ssg131
(lp2423
sbsg133
(dp2424
g2410
(dp2425
g137
g2412
sg139
I01
sg140
I2964
sssg142
Vfio-2.2.8; Test of paralell read from multiple files; total size: 81920 kB
p2426
sbag1
(g110
g3
NtRp2427
(dp2428
g113
g1
(g114
g3
NtRp2429
(dp2430
g117
(lp2431
g103
ag2401
asg121
(dp2432
g103
g2403
sg2401
g2404
ssg126
(dp2433
g2401
S'10'
p2434
sg103
S'16MB'
p2435
ssg131
(lp2436
sbsg133
(dp2437
g2410
(dp2438
g137
g2412
sg139
I01
sg140
I1864
sssg142
Vfio-2.2.8; Test of paralell read from multiple files; total size: 163840 kB
p2439
sbag1
(g110
g3
NtRp2440
(dp2441
g113
g1
(g114
g3
NtRp2442
(dp2443
g117
(lp2444
g103
ag2401
asg121
(dp2445
g103
g2403
sg2401
g2404
ssg126
(dp2446
g2401
S'10'
p2447
sg103
S'32MB'
p2448
ssg131
(lp2449
sbsg133
(dp2450
g2410
(dp2451
g137
g2412
sg139
I01
sg140
I1473
sssg142
Vfio-2.2.8; Test of paralell read from multiple files; total size: 327680 kB
p2452
sbag1
(g110
g3
NtRp2453
(dp2454
g113
g1
(g114
g3
NtRp2455
(dp2456
g117
(lp2457
g103
ag2401
asg121
(dp2458
g103
g2403
sg2401
g2404
ssg126
(dp2459
g2401
S'10'
p2460
sg103
S'64MB'
p2461
ssg131
(lp2462
sbsg133
(dp2463
g2410
(dp2464
g137
g2412
sg139
I01
sg140
I1383
sssg142
Vfio-2.2.8; Test of paralell read from multiple files; total size: 655360 kB
p2465
sbassg104
(dp2466
S'local__mcdram_7290_redhat-7.3_micperf-1.6.0_local_scaling'
p2467
(lp2468
g1
(g110
g3
NtRp2469
(dp2470
g113
g1
(g114
g3
NtRp2471
(dp2472
g117
(lp2473
g94
aS'with_padding'
p2474
aS'output'
p2475
aS'groups'
p2476
ag1343
ag1341
ag1342
ag1344
ag1345
ag1346
ag1347
ag1349
ag1348
ag1340
asg121
(dp2477
g1344
S'3'
sg1340
S'100'
p2478
sg1347
S'7'
sg94
S'72'
p2479
sg2474
S'0'
sg1343
S'16'
p2480
sg1349
S'2'
sg1345
S'64'
p2481
sg1346
S'7'
sg1341
S'224'
p2482
sg2476
S'1'
sg1342
S'224'
p2483
sg2475
S'--original-output'
p2484
sg1348
S'3'
ssg126
(dp2485
g1344
S'3'
sg1340
S'100'
p2486
sg94
g2479
sg1347
S'7'
sg2474
S'0'
sg1343
S'16'
p2487
sg1349
S'2'
sg1345
S'64'
p2488
sg1346
S'7'
sg1341
S'224'
p2489
sg2476
S'1'
sg1342
S'224'
p2490
sg2475
g2484
sg1348
S'3'
ssg131
(lp2491
g94
asbsg133
(dp2492
S'Computation.Avg.FWD'
p2493
(dp2494
g137
g138
sg139
I01
sg140
S'3021.31'
p2495
ssS'Computation.Avg.BWD_F'
p2496
(dp2497
g137
g138
sg139
I01
sg140
S'2748.69'
p2498
ssS'Computation.Avg.BWD_D'
p2499
(dp2500
g137
g138
sg139
I01
sg140
S'251.02'
p2501
sssg142
S'W=224, H=224, C=3, N=16, K=64, R=7, S=7'
p2502
sbasssS'tag'
p2503
S'mcdram_7290_redhat-7.3_micperf-1.6.0_local_scaling'
p2504
sS'_extended'
p2505
I00
sS'runArgs'
p2506
(dp2507
S'compResult'
p2508
S''
sS'verbLevel'
p2509
S'1'
sS'paramCat'
p2510
S'scaling'
p2511
sS'sudo'
p2512
I00
sS'logFileName'
p2513
NsS'kernelPlugin'
p2514
S''
sg2503
S''
sS'devIdx'
p2515
S'-1'
p2516
sS'kernelNames'
p2517
S'all'
p2518
sS'statistical_model'
p2519
(dp2520
sS'offMethod'
p2521
S'local'
p2522
sS'margin'
p2523
S''
sS'kernelArgs'
p2524
S''
sS'outDir'
p2525
S'.'
ssb.